
03_angr_symbolic_registers:     file format elf32-i386


Disassembly of section .init:

08048354 <_init>:
 8048354:	53                   	push   %ebx
 8048355:	83 ec 08             	sub    $0x8,%esp
 8048358:	e8 c3 00 00 00       	call   8048420 <__x86.get_pc_thunk.bx>
 804835d:	81 c3 a3 1c 00 00    	add    $0x1ca3,%ebx
 8048363:	8b 83 fc ff ff ff    	mov    -0x4(%ebx),%eax
 8048369:	85 c0                	test   %eax,%eax
 804836b:	74 05                	je     8048372 <_init+0x1e>
 804836d:	e8 6e 00 00 00       	call   80483e0 <__gmon_start__@plt>
 8048372:	83 c4 08             	add    $0x8,%esp
 8048375:	5b                   	pop    %ebx
 8048376:	c3                   	ret    

Disassembly of section .plt:

08048380 <.plt>:
 8048380:	ff 35 04 a0 04 08    	pushl  0x804a004
 8048386:	ff 25 08 a0 04 08    	jmp    *0x804a008
 804838c:	00 00                	add    %al,(%eax)
	...

08048390 <printf@plt>:
 8048390:	ff 25 0c a0 04 08    	jmp    *0x804a00c
 8048396:	68 00 00 00 00       	push   $0x0
 804839b:	e9 e0 ff ff ff       	jmp    8048380 <.plt>

080483a0 <__stack_chk_fail@plt>:
 80483a0:	ff 25 10 a0 04 08    	jmp    *0x804a010
 80483a6:	68 08 00 00 00       	push   $0x8
 80483ab:	e9 d0 ff ff ff       	jmp    8048380 <.plt>

080483b0 <puts@plt>:
 80483b0:	ff 25 14 a0 04 08    	jmp    *0x804a014
 80483b6:	68 10 00 00 00       	push   $0x10
 80483bb:	e9 c0 ff ff ff       	jmp    8048380 <.plt>

080483c0 <__libc_start_main@plt>:
 80483c0:	ff 25 18 a0 04 08    	jmp    *0x804a018
 80483c6:	68 18 00 00 00       	push   $0x18
 80483cb:	e9 b0 ff ff ff       	jmp    8048380 <.plt>

080483d0 <__isoc99_scanf@plt>:
 80483d0:	ff 25 1c a0 04 08    	jmp    *0x804a01c
 80483d6:	68 20 00 00 00       	push   $0x20
 80483db:	e9 a0 ff ff ff       	jmp    8048380 <.plt>

Disassembly of section .plt.got:

080483e0 <__gmon_start__@plt>:
 80483e0:	ff 25 fc 9f 04 08    	jmp    *0x8049ffc
 80483e6:	66 90                	xchg   %ax,%ax

Disassembly of section .text:

080483f0 <_start>:
 80483f0:	31 ed                	xor    %ebp,%ebp
 80483f2:	5e                   	pop    %esi
 80483f3:	89 e1                	mov    %esp,%ecx
 80483f5:	83 e4 f0             	and    $0xfffffff0,%esp
 80483f8:	50                   	push   %eax
 80483f9:	54                   	push   %esp
 80483fa:	52                   	push   %edx
 80483fb:	68 70 8a 04 08       	push   $0x8048a70
 8048400:	68 10 8a 04 08       	push   $0x8048a10
 8048405:	51                   	push   %ecx
 8048406:	56                   	push   %esi
 8048407:	68 5a 89 04 08       	push   $0x804895a
 804840c:	e8 af ff ff ff       	call   80483c0 <__libc_start_main@plt>
 8048411:	f4                   	hlt    
 8048412:	66 90                	xchg   %ax,%ax
 8048414:	66 90                	xchg   %ax,%ax
 8048416:	66 90                	xchg   %ax,%ax
 8048418:	66 90                	xchg   %ax,%ax
 804841a:	66 90                	xchg   %ax,%ax
 804841c:	66 90                	xchg   %ax,%ax
 804841e:	66 90                	xchg   %ax,%ax

08048420 <__x86.get_pc_thunk.bx>:
 8048420:	8b 1c 24             	mov    (%esp),%ebx
 8048423:	c3                   	ret    
 8048424:	66 90                	xchg   %ax,%ax
 8048426:	66 90                	xchg   %ax,%ax
 8048428:	66 90                	xchg   %ax,%ax
 804842a:	66 90                	xchg   %ax,%ax
 804842c:	66 90                	xchg   %ax,%ax
 804842e:	66 90                	xchg   %ax,%ax

08048430 <deregister_tm_clones>:
 8048430:	b8 3b a0 04 08       	mov    $0x804a03b,%eax
 8048435:	2d 38 a0 04 08       	sub    $0x804a038,%eax
 804843a:	83 f8 06             	cmp    $0x6,%eax
 804843d:	76 1a                	jbe    8048459 <deregister_tm_clones+0x29>
 804843f:	b8 00 00 00 00       	mov    $0x0,%eax
 8048444:	85 c0                	test   %eax,%eax
 8048446:	74 11                	je     8048459 <deregister_tm_clones+0x29>
 8048448:	55                   	push   %ebp
 8048449:	89 e5                	mov    %esp,%ebp
 804844b:	83 ec 14             	sub    $0x14,%esp
 804844e:	68 38 a0 04 08       	push   $0x804a038
 8048453:	ff d0                	call   *%eax
 8048455:	83 c4 10             	add    $0x10,%esp
 8048458:	c9                   	leave  
 8048459:	f3 c3                	repz ret 
 804845b:	90                   	nop
 804845c:	8d 74 26 00          	lea    0x0(%esi,%eiz,1),%esi

08048460 <register_tm_clones>:
 8048460:	b8 38 a0 04 08       	mov    $0x804a038,%eax
 8048465:	2d 38 a0 04 08       	sub    $0x804a038,%eax
 804846a:	c1 f8 02             	sar    $0x2,%eax
 804846d:	89 c2                	mov    %eax,%edx
 804846f:	c1 ea 1f             	shr    $0x1f,%edx
 8048472:	01 d0                	add    %edx,%eax
 8048474:	d1 f8                	sar    %eax
 8048476:	74 1b                	je     8048493 <register_tm_clones+0x33>
 8048478:	ba 00 00 00 00       	mov    $0x0,%edx
 804847d:	85 d2                	test   %edx,%edx
 804847f:	74 12                	je     8048493 <register_tm_clones+0x33>
 8048481:	55                   	push   %ebp
 8048482:	89 e5                	mov    %esp,%ebp
 8048484:	83 ec 10             	sub    $0x10,%esp
 8048487:	50                   	push   %eax
 8048488:	68 38 a0 04 08       	push   $0x804a038
 804848d:	ff d2                	call   *%edx
 804848f:	83 c4 10             	add    $0x10,%esp
 8048492:	c9                   	leave  
 8048493:	f3 c3                	repz ret 
 8048495:	8d 74 26 00          	lea    0x0(%esi,%eiz,1),%esi
 8048499:	8d bc 27 00 00 00 00 	lea    0x0(%edi,%eiz,1),%edi

080484a0 <__do_global_dtors_aux>:
 80484a0:	80 3d 35 a0 04 08 00 	cmpb   $0x0,0x804a035
 80484a7:	75 13                	jne    80484bc <__do_global_dtors_aux+0x1c>
 80484a9:	55                   	push   %ebp
 80484aa:	89 e5                	mov    %esp,%ebp
 80484ac:	83 ec 08             	sub    $0x8,%esp
 80484af:	e8 7c ff ff ff       	call   8048430 <deregister_tm_clones>
 80484b4:	c6 05 35 a0 04 08 01 	movb   $0x1,0x804a035
 80484bb:	c9                   	leave  
 80484bc:	f3 c3                	repz ret 
 80484be:	66 90                	xchg   %ax,%ax

080484c0 <frame_dummy>:
 80484c0:	b8 10 9f 04 08       	mov    $0x8049f10,%eax
 80484c5:	8b 10                	mov    (%eax),%edx
 80484c7:	85 d2                	test   %edx,%edx
 80484c9:	75 05                	jne    80484d0 <frame_dummy+0x10>
 80484cb:	eb 93                	jmp    8048460 <register_tm_clones>
 80484cd:	8d 76 00             	lea    0x0(%esi),%esi
 80484d0:	ba 00 00 00 00       	mov    $0x0,%edx
 80484d5:	85 d2                	test   %edx,%edx
 80484d7:	74 f2                	je     80484cb <frame_dummy+0xb>
 80484d9:	55                   	push   %ebp
 80484da:	89 e5                	mov    %esp,%ebp
 80484dc:	83 ec 14             	sub    $0x14,%esp
 80484df:	50                   	push   %eax
 80484e0:	ff d2                	call   *%edx
 80484e2:	83 c4 10             	add    $0x10,%esp
 80484e5:	c9                   	leave  
 80484e6:	e9 75 ff ff ff       	jmp    8048460 <register_tm_clones>

080484eb <print_msg>:
 80484eb:	55                   	push   %ebp
 80484ec:	89 e5                	mov    %esp,%ebp
 80484ee:	83 ec 08             	sub    $0x8,%esp
 80484f1:	83 ec 08             	sub    $0x8,%esp
 80484f4:	68 28 a0 04 08       	push   $0x804a028
 80484f9:	68 90 8a 04 08       	push   $0x8048a90
 80484fe:	e8 8d fe ff ff       	call   8048390 <printf@plt>
 8048503:	83 c4 10             	add    $0x10,%esp
 8048506:	90                   	nop
 8048507:	c9                   	leave  
 8048508:	c3                   	ret    

08048509 <complex_function_1>:
 8048509:	55                   	push   %ebp
 804850a:	89 e5                	mov    %esp,%ebp
 804850c:	81 45 08 31 5b 04 01 	addl   $0x1045b31,0x8(%ebp)
 8048513:	81 75 08 52 c5 68 b1 	xorl   $0xb168c552,0x8(%ebp)
 804851a:	8b 4d 08             	mov    0x8(%ebp),%ecx
 804851d:	81 e9 99 9f bf 23    	sub    $0x23bf9f99,%ecx
 8048523:	89 4d 08             	mov    %ecx,0x8(%ebp)
 8048526:	8b 4d 08             	mov    0x8(%ebp),%ecx
 8048529:	81 e9 41 52 b3 39    	sub    $0x39b35241,%ecx
 804852f:	89 4d 08             	mov    %ecx,0x8(%ebp)
 8048532:	81 45 08 b0 04 27 10 	addl   $0x102704b0,0x8(%ebp)
 8048539:	81 45 08 53 f1 dd 73 	addl   $0x73ddf153,0x8(%ebp)
 8048540:	81 75 08 d7 cf 14 9f 	xorl   $0x9f14cfd7,0x8(%ebp)
 8048547:	81 45 08 70 b4 df 42 	addl   $0x42dfb470,0x8(%ebp)
 804854e:	8b 4d 08             	mov    0x8(%ebp),%ecx
 8048551:	81 e9 a2 cb 94 63    	sub    $0x6394cba2,%ecx
 8048557:	89 4d 08             	mov    %ecx,0x8(%ebp)
 804855a:	81 75 08 28 71 31 22 	xorl   $0x22317128,0x8(%ebp)
 8048561:	81 75 08 39 fa f7 90 	xorl   $0x90f7fa39,0x8(%ebp)
 8048568:	81 75 08 fe e8 46 45 	xorl   $0x4546e8fe,0x8(%ebp)
 804856f:	81 45 08 5d 6d 24 57 	addl   $0x57246d5d,0x8(%ebp)
 8048576:	81 45 08 41 5d 3e 58 	addl   $0x583e5d41,0x8(%ebp)
 804857d:	81 75 08 c6 f4 d1 05 	xorl   $0x5d1f4c6,0x8(%ebp)
 8048584:	81 45 08 03 89 8a 7b 	addl   $0x7b8a8903,0x8(%ebp)
 804858b:	8b 4d 08             	mov    0x8(%ebp),%ecx
 804858e:	81 e9 eb 87 fc 7e    	sub    $0x7efc87eb,%ecx
 8048594:	89 4d 08             	mov    %ecx,0x8(%ebp)
 8048597:	81 75 08 f8 0b f7 b6 	xorl   $0xb6f70bf8,0x8(%ebp)
 804859e:	81 45 08 6c 70 27 5b 	addl   $0x5b27706c,0x8(%ebp)
 80485a5:	81 45 08 b5 20 85 54 	addl   $0x548520b5,0x8(%ebp)
 80485ac:	81 45 08 bd f0 a9 26 	addl   $0x26a9f0bd,0x8(%ebp)
 80485b3:	81 75 08 fe 82 50 3d 	xorl   $0x3d5082fe,0x8(%ebp)
 80485ba:	81 45 08 08 0e 9a 52 	addl   $0x529a0e08,0x8(%ebp)
 80485c1:	8b 4d 08             	mov    0x8(%ebp),%ecx
 80485c4:	81 e9 45 f4 28 53    	sub    $0x5328f445,%ecx
 80485ca:	89 4d 08             	mov    %ecx,0x8(%ebp)
 80485cd:	81 75 08 bc 72 3d f1 	xorl   $0xf13d72bc,0x8(%ebp)
 80485d4:	81 75 08 4e 85 fc ba 	xorl   $0xbafc854e,0x8(%ebp)
 80485db:	81 75 08 5f f9 d4 9b 	xorl   $0x9bd4f95f,0x8(%ebp)
 80485e2:	81 45 08 db 91 a7 3f 	addl   $0x3fa791db,0x8(%ebp)
 80485e9:	81 75 08 c3 f0 c5 bb 	xorl   $0xbbc5f0c3,0x8(%ebp)
 80485f0:	81 75 08 b4 c8 25 5d 	xorl   $0x5d25c8b4,0x8(%ebp)
 80485f7:	8b 4d 08             	mov    0x8(%ebp),%ecx
 80485fa:	81 e9 17 d6 68 15    	sub    $0x1568d617,%ecx
 8048600:	89 4d 08             	mov    %ecx,0x8(%ebp)
 8048603:	81 45 08 f1 b6 19 15 	addl   $0x1519b6f1,0x8(%ebp)
 804860a:	81 45 08 f8 66 3c 24 	addl   $0x243c66f8,0x8(%ebp)
 8048611:	81 75 08 69 cd ee e1 	xorl   $0xe1eecd69,0x8(%ebp)
 8048618:	8b 4d 08             	mov    0x8(%ebp),%ecx
 804861b:	81 e9 17 55 4e 6c    	sub    $0x6c4e5517,%ecx
 8048621:	89 4d 08             	mov    %ecx,0x8(%ebp)
 8048624:	81 75 08 f5 ec 86 6b 	xorl   $0x6b86ecf5,0x8(%ebp)
 804862b:	8b 4d 08             	mov    0x8(%ebp),%ecx
 804862e:	81 e9 d4 71 c6 1a    	sub    $0x1ac671d4,%ecx
 8048634:	89 4d 08             	mov    %ecx,0x8(%ebp)
 8048637:	81 75 08 5e 17 e5 e8 	xorl   $0xe8e5175e,0x8(%ebp)
 804863e:	81 75 08 7d 2f c5 01 	xorl   $0x1c52f7d,0x8(%ebp)
 8048645:	81 75 08 9e 12 ee 86 	xorl   $0x86ee129e,0x8(%ebp)
 804864c:	81 75 08 66 e6 dc 4f 	xorl   $0x4fdce666,0x8(%ebp)
 8048653:	8b 4d 08             	mov    0x8(%ebp),%ecx
 8048656:	89 c8                	mov    %ecx,%eax
 8048658:	5d                   	pop    %ebp
 8048659:	c3                   	ret    

0804865a <complex_function_2>:
 804865a:	55                   	push   %ebp
 804865b:	89 e5                	mov    %esp,%ebp
 804865d:	81 45 08 a4 7d 22 1d 	addl   $0x1d227da4,0x8(%ebp)
 8048664:	81 75 08 af 07 33 5e 	xorl   $0x5e3307af,0x8(%ebp)
 804866b:	8b 4d 08             	mov    0x8(%ebp),%ecx
 804866e:	81 e9 df 9c 97 0a    	sub    $0xa979cdf,%ecx
 8048674:	89 4d 08             	mov    %ecx,0x8(%ebp)
 8048677:	81 75 08 eb 17 ce f4 	xorl   $0xf4ce17eb,0x8(%ebp)
 804867e:	81 45 08 37 44 ff 09 	addl   $0x9ff4437,0x8(%ebp)
 8048685:	8b 4d 08             	mov    0x8(%ebp),%ecx
 8048688:	81 e9 ed c8 f2 69    	sub    $0x69f2c8ed,%ecx
 804868e:	89 4d 08             	mov    %ecx,0x8(%ebp)
 8048691:	8b 4d 08             	mov    0x8(%ebp),%ecx
 8048694:	81 e9 8e ff 60 0d    	sub    $0xd60ff8e,%ecx
 804869a:	89 4d 08             	mov    %ecx,0x8(%ebp)
 804869d:	8b 4d 08             	mov    0x8(%ebp),%ecx
 80486a0:	81 e9 ec 06 69 5d    	sub    $0x5d6906ec,%ecx
 80486a6:	89 4d 08             	mov    %ecx,0x8(%ebp)
 80486a9:	81 45 08 bc 0f f6 42 	addl   $0x42f60fbc,0x8(%ebp)
 80486b0:	81 45 08 5f b8 be 7b 	addl   $0x7bbeb85f,0x8(%ebp)
 80486b7:	81 75 08 d1 ef 58 52 	xorl   $0x5258efd1,0x8(%ebp)
 80486be:	81 45 08 57 d7 01 4c 	addl   $0x4c01d757,0x8(%ebp)
 80486c5:	81 45 08 7b 9e c9 6b 	addl   $0x6bc99e7b,0x8(%ebp)
 80486cc:	81 75 08 9e 03 e2 35 	xorl   $0x35e2039e,0x8(%ebp)
 80486d3:	81 75 08 65 6e c3 54 	xorl   $0x54c36e65,0x8(%ebp)
 80486da:	81 75 08 7a f6 fa 44 	xorl   $0x44faf67a,0x8(%ebp)
 80486e1:	81 45 08 6e 13 a7 4a 	addl   $0x4aa7136e,0x8(%ebp)
 80486e8:	81 45 08 ad c4 4b 58 	addl   $0x584bc4ad,0x8(%ebp)
 80486ef:	81 45 08 74 7b a0 19 	addl   $0x19a07b74,0x8(%ebp)
 80486f6:	81 75 08 83 86 78 c8 	xorl   $0xc8788683,0x8(%ebp)
 80486fd:	81 45 08 a9 60 4a 02 	addl   $0x24a60a9,0x8(%ebp)
 8048704:	81 75 08 e8 78 fc 54 	xorl   $0x54fc78e8,0x8(%ebp)
 804870b:	8b 4d 08             	mov    0x8(%ebp),%ecx
 804870e:	81 e9 17 bb d6 3d    	sub    $0x3dd6bb17,%ecx
 8048714:	89 4d 08             	mov    %ecx,0x8(%ebp)
 8048717:	81 75 08 62 8d 9e 13 	xorl   $0x139e8d62,0x8(%ebp)
 804871e:	81 75 08 7c 31 5d 51 	xorl   $0x515d317c,0x8(%ebp)
 8048725:	81 45 08 c2 d9 fb 1b 	addl   $0x1bfbd9c2,0x8(%ebp)
 804872c:	81 45 08 af 1d 62 6e 	addl   $0x6e621daf,0x8(%ebp)
 8048733:	8b 4d 08             	mov    0x8(%ebp),%ecx
 8048736:	81 e9 2c 74 12 70    	sub    $0x7012742c,%ecx
 804873c:	89 4d 08             	mov    %ecx,0x8(%ebp)
 804873f:	8b 4d 08             	mov    0x8(%ebp),%ecx
 8048742:	81 e9 0e 07 97 1b    	sub    $0x1b97070e,%ecx
 8048748:	89 4d 08             	mov    %ecx,0x8(%ebp)
 804874b:	8b 4d 08             	mov    0x8(%ebp),%ecx
 804874e:	81 e9 a8 37 da 46    	sub    $0x46da37a8,%ecx
 8048754:	89 4d 08             	mov    %ecx,0x8(%ebp)
 8048757:	81 75 08 ea 3a 75 72 	xorl   $0x72753aea,0x8(%ebp)
 804875e:	81 45 08 63 a6 67 25 	addl   $0x2567a663,0x8(%ebp)
 8048765:	81 75 08 c8 f7 3d d0 	xorl   $0xd03df7c8,0x8(%ebp)
 804876c:	8b 4d 08             	mov    0x8(%ebp),%ecx
 804876f:	81 e9 fc 1e 4f 06    	sub    $0x64f1efc,%ecx
 8048775:	89 4d 08             	mov    %ecx,0x8(%ebp)
 8048778:	81 45 08 27 ff b5 3f 	addl   $0x3fb5ff27,0x8(%ebp)
 804877f:	81 75 08 91 74 f8 9d 	xorl   $0x9df87491,0x8(%ebp)
 8048786:	81 45 08 5f 33 ab 1e 	addl   $0x1eab335f,0x8(%ebp)
 804878d:	81 75 08 1c 08 11 e4 	xorl   $0xe411081c,0x8(%ebp)
 8048794:	8b 4d 08             	mov    0x8(%ebp),%ecx
 8048797:	81 e9 e6 df 26 4e    	sub    $0x4e26dfe6,%ecx
 804879d:	89 4d 08             	mov    %ecx,0x8(%ebp)
 80487a0:	81 45 08 b9 4d dd 51 	addl   $0x51dd4db9,0x8(%ebp)
 80487a7:	81 45 08 a4 bd a5 43 	addl   $0x43a5bda4,0x8(%ebp)
 80487ae:	81 45 08 76 75 ad 5b 	addl   $0x5bad7576,0x8(%ebp)
 80487b5:	81 75 08 e6 3d 10 53 	xorl   $0x53103de6,0x8(%ebp)
 80487bc:	81 75 08 17 6d 49 9e 	xorl   $0x9e496d17,0x8(%ebp)
 80487c3:	8b 4d 08             	mov    0x8(%ebp),%ecx
 80487c6:	81 e9 d1 86 3a 63    	sub    $0x633a86d1,%ecx
 80487cc:	89 4d 08             	mov    %ecx,0x8(%ebp)
 80487cf:	81 75 08 66 05 34 c7 	xorl   $0xc7340566,0x8(%ebp)
 80487d6:	8b 4d 08             	mov    0x8(%ebp),%ecx
 80487d9:	89 c8                	mov    %ecx,%eax
 80487db:	5d                   	pop    %ebp
 80487dc:	c3                   	ret    

080487dd <complex_function_3>:
 80487dd:	55                   	push   %ebp
 80487de:	89 e5                	mov    %esp,%ebp
 80487e0:	81 75 08 71 cc c4 03 	xorl   $0x3c4cc71,0x8(%ebp)
 80487e7:	81 75 08 49 c8 5d a5 	xorl   $0xa55dc849,0x8(%ebp)
 80487ee:	8b 4d 08             	mov    0x8(%ebp),%ecx
 80487f1:	81 e9 a6 c1 d8 59    	sub    $0x59d8c1a6,%ecx
 80487f7:	89 4d 08             	mov    %ecx,0x8(%ebp)
 80487fa:	81 45 08 17 7a 16 46 	addl   $0x46167a17,0x8(%ebp)
 8048801:	8b 4d 08             	mov    0x8(%ebp),%ecx
 8048804:	81 e9 00 0b bc 28    	sub    $0x28bc0b00,%ecx
 804880a:	89 4d 08             	mov    %ecx,0x8(%ebp)
 804880d:	81 75 08 f3 fe a9 e1 	xorl   $0xe1a9fef3,0x8(%ebp)
 8048814:	81 75 08 ab 66 bb ad 	xorl   $0xadbb66ab,0x8(%ebp)
 804881b:	8b 4d 08             	mov    0x8(%ebp),%ecx
 804881e:	81 e9 9a e4 b7 58    	sub    $0x58b7e49a,%ecx
 8048824:	89 4d 08             	mov    %ecx,0x8(%ebp)
 8048827:	81 75 08 aa fd a5 c2 	xorl   $0xc2a5fdaa,0x8(%ebp)
 804882e:	81 75 08 61 a7 96 bf 	xorl   $0xbf96a761,0x8(%ebp)
 8048835:	81 45 08 57 b5 ac 02 	addl   $0x2acb557,0x8(%ebp)
 804883c:	8b 4d 08             	mov    0x8(%ebp),%ecx
 804883f:	81 e9 dc f5 9c 37    	sub    $0x379cf5dc,%ecx
 8048845:	89 4d 08             	mov    %ecx,0x8(%ebp)
 8048848:	81 75 08 fb bb 56 e8 	xorl   $0xe856bbfb,0x8(%ebp)
 804884f:	8b 4d 08             	mov    0x8(%ebp),%ecx
 8048852:	81 e9 af 87 7b 3c    	sub    $0x3c7b87af,%ecx
 8048858:	89 4d 08             	mov    %ecx,0x8(%ebp)
 804885b:	81 75 08 44 87 bc 30 	xorl   $0x30bc8744,0x8(%ebp)
 8048862:	81 45 08 af 16 b7 1f 	addl   $0x1fb716af,0x8(%ebp)
 8048869:	8b 4d 08             	mov    0x8(%ebp),%ecx
 804886c:	81 e9 80 24 8a 32    	sub    $0x328a2480,%ecx
 8048872:	89 4d 08             	mov    %ecx,0x8(%ebp)
 8048875:	81 75 08 93 a9 de 97 	xorl   $0x97dea993,0x8(%ebp)
 804887c:	81 45 08 fd 15 dd 2c 	addl   $0x2cdd15fd,0x8(%ebp)
 8048883:	8b 4d 08             	mov    0x8(%ebp),%ecx
 8048886:	81 e9 94 a6 22 5e    	sub    $0x5e22a694,%ecx
 804888c:	89 4d 08             	mov    %ecx,0x8(%ebp)
 804888f:	8b 4d 08             	mov    0x8(%ebp),%ecx
 8048892:	81 e9 17 4c 29 74    	sub    $0x74294c17,%ecx
 8048898:	89 4d 08             	mov    %ecx,0x8(%ebp)
 804889b:	81 45 08 2c e0 2f 05 	addl   $0x52fe02c,0x8(%ebp)
 80488a2:	81 75 08 15 c4 a1 18 	xorl   $0x18a1c415,0x8(%ebp)
 80488a9:	81 75 08 f4 0a 6e 27 	xorl   $0x276e0af4,0x8(%ebp)
 80488b0:	81 45 08 f2 0c 52 0e 	addl   $0xe520cf2,0x8(%ebp)
 80488b7:	81 75 08 9f 1e bb 97 	xorl   $0x97bb1e9f,0x8(%ebp)
 80488be:	8b 4d 08             	mov    0x8(%ebp),%ecx
 80488c1:	81 e9 9c f3 d8 2d    	sub    $0x2dd8f39c,%ecx
 80488c7:	89 4d 08             	mov    %ecx,0x8(%ebp)
 80488ca:	81 75 08 d0 65 16 57 	xorl   $0x571665d0,0x8(%ebp)
 80488d1:	8b 4d 08             	mov    0x8(%ebp),%ecx
 80488d4:	81 e9 96 85 fe 2e    	sub    $0x2efe8596,%ecx
 80488da:	89 4d 08             	mov    %ecx,0x8(%ebp)
 80488dd:	8b 4d 08             	mov    0x8(%ebp),%ecx
 80488e0:	81 e9 a0 ad be 19    	sub    $0x19beada0,%ecx
 80488e6:	89 4d 08             	mov    %ecx,0x8(%ebp)
 80488e9:	81 45 08 c0 ad 5e 32 	addl   $0x325eadc0,0x8(%ebp)
 80488f0:	81 75 08 85 06 8c e8 	xorl   $0xe88c0685,0x8(%ebp)
 80488f7:	81 75 08 6e b6 48 13 	xorl   $0x1348b66e,0x8(%ebp)
 80488fe:	81 75 08 79 7e d9 1d 	xorl   $0x1dd97e79,0x8(%ebp)
 8048905:	8b 4d 08             	mov    0x8(%ebp),%ecx
 8048908:	89 c8                	mov    %ecx,%eax
 804890a:	5d                   	pop    %ebp
 804890b:	c3                   	ret    

0804890c <get_user_input>:
 804890c:	55                   	push   %ebp
 804890d:	89 e5                	mov    %esp,%ebp
 804890f:	83 ec 18             	sub    $0x18,%esp
 8048912:	65 8b 0d 14 00 00 00 	mov    %gs:0x14,%ecx
 8048919:	89 4d f4             	mov    %ecx,-0xc(%ebp)
 804891c:	31 c9                	xor    %ecx,%ecx
 804891e:	8d 4d f0             	lea    -0x10(%ebp),%ecx
 8048921:	51                   	push   %ecx
 8048922:	8d 4d ec             	lea    -0x14(%ebp),%ecx
 8048925:	51                   	push   %ecx
 8048926:	8d 4d e8             	lea    -0x18(%ebp),%ecx
 8048929:	51                   	push   %ecx
 804892a:	68 93 8a 04 08       	push   $0x8048a93
 804892f:	e8 9c fa ff ff       	call   80483d0 <__isoc99_scanf@plt>
 8048934:	83 c4 10             	add    $0x10,%esp
 8048937:	8b 4d e8             	mov    -0x18(%ebp),%ecx
 804893a:	89 c8                	mov    %ecx,%eax
 804893c:	8b 4d ec             	mov    -0x14(%ebp),%ecx
 804893f:	89 cb                	mov    %ecx,%ebx
 8048941:	8b 4d f0             	mov    -0x10(%ebp),%ecx
 8048944:	89 ca                	mov    %ecx,%edx
 8048946:	90                   	nop
 8048947:	8b 4d f4             	mov    -0xc(%ebp),%ecx
 804894a:	65 33 0d 14 00 00 00 	xor    %gs:0x14,%ecx
 8048951:	74 05                	je     8048958 <get_user_input+0x4c>
 8048953:	e8 48 fa ff ff       	call   80483a0 <__stack_chk_fail@plt>
 8048958:	c9                   	leave  
 8048959:	c3                   	ret    

0804895a <main>:
 804895a:	8d 4c 24 04          	lea    0x4(%esp),%ecx
 804895e:	83 e4 f0             	and    $0xfffffff0,%esp
 8048961:	ff 71 fc             	pushl  -0x4(%ecx)
 8048964:	55                   	push   %ebp
 8048965:	89 e5                	mov    %esp,%ebp
 8048967:	51                   	push   %ecx
 8048968:	83 ec 14             	sub    $0x14,%esp
 804896b:	83 ec 0c             	sub    $0xc,%esp
 804896e:	68 9c 8a 04 08       	push   $0x8048a9c
 8048973:	e8 18 fa ff ff       	call   8048390 <printf@plt>
 8048978:	83 c4 10             	add    $0x10,%esp
 804897b:	e8 8c ff ff ff       	call   804890c <get_user_input>
 8048980:	89 45 ec             	mov    %eax,-0x14(%ebp)
 8048983:	89 5d f0             	mov    %ebx,-0x10(%ebp)
 8048986:	89 55 f4             	mov    %edx,-0xc(%ebp)
 8048989:	83 ec 0c             	sub    $0xc,%esp
 804898c:	ff 75 ec             	pushl  -0x14(%ebp)
 804898f:	e8 75 fb ff ff       	call   8048509 <complex_function_1>
 8048994:	83 c4 10             	add    $0x10,%esp
 8048997:	89 c1                	mov    %eax,%ecx
 8048999:	89 4d ec             	mov    %ecx,-0x14(%ebp)
 804899c:	83 ec 0c             	sub    $0xc,%esp
 804899f:	ff 75 f0             	pushl  -0x10(%ebp)
 80489a2:	e8 b3 fc ff ff       	call   804865a <complex_function_2>
 80489a7:	83 c4 10             	add    $0x10,%esp
 80489aa:	89 c1                	mov    %eax,%ecx
 80489ac:	89 4d f0             	mov    %ecx,-0x10(%ebp)
 80489af:	83 ec 0c             	sub    $0xc,%esp
 80489b2:	ff 75 f4             	pushl  -0xc(%ebp)
 80489b5:	e8 23 fe ff ff       	call   80487dd <complex_function_3>
 80489ba:	83 c4 10             	add    $0x10,%esp
 80489bd:	89 c1                	mov    %eax,%ecx
 80489bf:	89 4d f4             	mov    %ecx,-0xc(%ebp)
 80489c2:	83 7d ec 00          	cmpl   $0x0,-0x14(%ebp)
 80489c6:	75 0c                	jne    80489d4 <main+0x7a>
 80489c8:	83 7d f0 00          	cmpl   $0x0,-0x10(%ebp)
 80489cc:	75 06                	jne    80489d4 <main+0x7a>
 80489ce:	83 7d f4 00          	cmpl   $0x0,-0xc(%ebp)
 80489d2:	74 12                	je     80489e6 <main+0x8c>
 80489d4:	83 ec 0c             	sub    $0xc,%esp
 80489d7:	68 b1 8a 04 08       	push   $0x8048ab1
 80489dc:	e8 cf f9 ff ff       	call   80483b0 <puts@plt>
 80489e1:	83 c4 10             	add    $0x10,%esp
 80489e4:	eb 10                	jmp    80489f6 <main+0x9c>
 80489e6:	83 ec 0c             	sub    $0xc,%esp
 80489e9:	68 bc 8a 04 08       	push   $0x8048abc
 80489ee:	e8 bd f9 ff ff       	call   80483b0 <puts@plt>
 80489f3:	83 c4 10             	add    $0x10,%esp
 80489f6:	b9 00 00 00 00       	mov    $0x0,%ecx
 80489fb:	89 c8                	mov    %ecx,%eax
 80489fd:	8b 4d fc             	mov    -0x4(%ebp),%ecx
 8048a00:	c9                   	leave  
 8048a01:	8d 61 fc             	lea    -0x4(%ecx),%esp
 8048a04:	c3                   	ret    
 8048a05:	66 90                	xchg   %ax,%ax
 8048a07:	66 90                	xchg   %ax,%ax
 8048a09:	66 90                	xchg   %ax,%ax
 8048a0b:	66 90                	xchg   %ax,%ax
 8048a0d:	66 90                	xchg   %ax,%ax
 8048a0f:	90                   	nop

08048a10 <__libc_csu_init>:
 8048a10:	55                   	push   %ebp
 8048a11:	57                   	push   %edi
 8048a12:	56                   	push   %esi
 8048a13:	53                   	push   %ebx
 8048a14:	e8 07 fa ff ff       	call   8048420 <__x86.get_pc_thunk.bx>
 8048a19:	81 c3 e7 15 00 00    	add    $0x15e7,%ebx
 8048a1f:	83 ec 0c             	sub    $0xc,%esp
 8048a22:	8b 6c 24 20          	mov    0x20(%esp),%ebp
 8048a26:	8d b3 0c ff ff ff    	lea    -0xf4(%ebx),%esi
 8048a2c:	e8 23 f9 ff ff       	call   8048354 <_init>
 8048a31:	8d 83 08 ff ff ff    	lea    -0xf8(%ebx),%eax
 8048a37:	29 c6                	sub    %eax,%esi
 8048a39:	c1 fe 02             	sar    $0x2,%esi
 8048a3c:	85 f6                	test   %esi,%esi
 8048a3e:	74 25                	je     8048a65 <__libc_csu_init+0x55>
 8048a40:	31 ff                	xor    %edi,%edi
 8048a42:	8d b6 00 00 00 00    	lea    0x0(%esi),%esi
 8048a48:	83 ec 04             	sub    $0x4,%esp
 8048a4b:	ff 74 24 2c          	pushl  0x2c(%esp)
 8048a4f:	ff 74 24 2c          	pushl  0x2c(%esp)
 8048a53:	55                   	push   %ebp
 8048a54:	ff 94 bb 08 ff ff ff 	call   *-0xf8(%ebx,%edi,4)
 8048a5b:	83 c7 01             	add    $0x1,%edi
 8048a5e:	83 c4 10             	add    $0x10,%esp
 8048a61:	39 f7                	cmp    %esi,%edi
 8048a63:	75 e3                	jne    8048a48 <__libc_csu_init+0x38>
 8048a65:	83 c4 0c             	add    $0xc,%esp
 8048a68:	5b                   	pop    %ebx
 8048a69:	5e                   	pop    %esi
 8048a6a:	5f                   	pop    %edi
 8048a6b:	5d                   	pop    %ebp
 8048a6c:	c3                   	ret    
 8048a6d:	8d 76 00             	lea    0x0(%esi),%esi

08048a70 <__libc_csu_fini>:
 8048a70:	f3 c3                	repz ret 

Disassembly of section .fini:

08048a74 <_fini>:
 8048a74:	53                   	push   %ebx
 8048a75:	83 ec 08             	sub    $0x8,%esp
 8048a78:	e8 a3 f9 ff ff       	call   8048420 <__x86.get_pc_thunk.bx>
 8048a7d:	81 c3 83 15 00 00    	add    $0x1583,%ebx
 8048a83:	83 c4 08             	add    $0x8,%esp
 8048a86:	5b                   	pop    %ebx
 8048a87:	c3                   	ret    
