
04_angr_symbolic_stack:     file format elf32-i386


Disassembly of section .init:

0804830c <_init>:
 804830c:	53                   	push   %ebx
 804830d:	83 ec 08             	sub    $0x8,%esp
 8048310:	e8 ab 00 00 00       	call   80483c0 <__x86.get_pc_thunk.bx>
 8048315:	81 c3 eb 1c 00 00    	add    $0x1ceb,%ebx
 804831b:	8b 83 fc ff ff ff    	mov    -0x4(%ebx),%eax
 8048321:	85 c0                	test   %eax,%eax
 8048323:	74 05                	je     804832a <_init+0x1e>
 8048325:	e8 56 00 00 00       	call   8048380 <__gmon_start__@plt>
 804832a:	83 c4 08             	add    $0x8,%esp
 804832d:	5b                   	pop    %ebx
 804832e:	c3                   	ret    

Disassembly of section .plt:

08048330 <.plt>:
 8048330:	ff 35 04 a0 04 08    	pushl  0x804a004
 8048336:	ff 25 08 a0 04 08    	jmp    *0x804a008
 804833c:	00 00                	add    %al,(%eax)
	...

08048340 <printf@plt>:
 8048340:	ff 25 0c a0 04 08    	jmp    *0x804a00c
 8048346:	68 00 00 00 00       	push   $0x0
 804834b:	e9 e0 ff ff ff       	jmp    8048330 <.plt>

08048350 <puts@plt>:
 8048350:	ff 25 10 a0 04 08    	jmp    *0x804a010
 8048356:	68 08 00 00 00       	push   $0x8
 804835b:	e9 d0 ff ff ff       	jmp    8048330 <.plt>

08048360 <__libc_start_main@plt>:
 8048360:	ff 25 14 a0 04 08    	jmp    *0x804a014
 8048366:	68 10 00 00 00       	push   $0x10
 804836b:	e9 c0 ff ff ff       	jmp    8048330 <.plt>

08048370 <__isoc99_scanf@plt>:
 8048370:	ff 25 18 a0 04 08    	jmp    *0x804a018
 8048376:	68 18 00 00 00       	push   $0x18
 804837b:	e9 b0 ff ff ff       	jmp    8048330 <.plt>

Disassembly of section .plt.got:

08048380 <__gmon_start__@plt>:
 8048380:	ff 25 fc 9f 04 08    	jmp    *0x8049ffc
 8048386:	66 90                	xchg   %ax,%ax

Disassembly of section .text:

08048390 <_start>:
 8048390:	31 ed                	xor    %ebp,%ebp
 8048392:	5e                   	pop    %esi
 8048393:	89 e1                	mov    %esp,%ecx
 8048395:	83 e4 f0             	and    $0xfffffff0,%esp
 8048398:	50                   	push   %eax
 8048399:	54                   	push   %esp
 804839a:	52                   	push   %edx
 804839b:	68 90 87 04 08       	push   $0x8048790
 80483a0:	68 30 87 04 08       	push   $0x8048730
 80483a5:	51                   	push   %ecx
 80483a6:	56                   	push   %esi
 80483a7:	68 f4 86 04 08       	push   $0x80486f4
 80483ac:	e8 af ff ff ff       	call   8048360 <__libc_start_main@plt>
 80483b1:	f4                   	hlt    
 80483b2:	66 90                	xchg   %ax,%ax
 80483b4:	66 90                	xchg   %ax,%ax
 80483b6:	66 90                	xchg   %ax,%ax
 80483b8:	66 90                	xchg   %ax,%ax
 80483ba:	66 90                	xchg   %ax,%ax
 80483bc:	66 90                	xchg   %ax,%ax
 80483be:	66 90                	xchg   %ax,%ax

080483c0 <__x86.get_pc_thunk.bx>:
 80483c0:	8b 1c 24             	mov    (%esp),%ebx
 80483c3:	c3                   	ret    
 80483c4:	66 90                	xchg   %ax,%ax
 80483c6:	66 90                	xchg   %ax,%ax
 80483c8:	66 90                	xchg   %ax,%ax
 80483ca:	66 90                	xchg   %ax,%ax
 80483cc:	66 90                	xchg   %ax,%ax
 80483ce:	66 90                	xchg   %ax,%ax

080483d0 <deregister_tm_clones>:
 80483d0:	b8 37 a0 04 08       	mov    $0x804a037,%eax
 80483d5:	2d 34 a0 04 08       	sub    $0x804a034,%eax
 80483da:	83 f8 06             	cmp    $0x6,%eax
 80483dd:	76 1a                	jbe    80483f9 <deregister_tm_clones+0x29>
 80483df:	b8 00 00 00 00       	mov    $0x0,%eax
 80483e4:	85 c0                	test   %eax,%eax
 80483e6:	74 11                	je     80483f9 <deregister_tm_clones+0x29>
 80483e8:	55                   	push   %ebp
 80483e9:	89 e5                	mov    %esp,%ebp
 80483eb:	83 ec 14             	sub    $0x14,%esp
 80483ee:	68 34 a0 04 08       	push   $0x804a034
 80483f3:	ff d0                	call   *%eax
 80483f5:	83 c4 10             	add    $0x10,%esp
 80483f8:	c9                   	leave  
 80483f9:	f3 c3                	repz ret 
 80483fb:	90                   	nop
 80483fc:	8d 74 26 00          	lea    0x0(%esi,%eiz,1),%esi

08048400 <register_tm_clones>:
 8048400:	b8 34 a0 04 08       	mov    $0x804a034,%eax
 8048405:	2d 34 a0 04 08       	sub    $0x804a034,%eax
 804840a:	c1 f8 02             	sar    $0x2,%eax
 804840d:	89 c2                	mov    %eax,%edx
 804840f:	c1 ea 1f             	shr    $0x1f,%edx
 8048412:	01 d0                	add    %edx,%eax
 8048414:	d1 f8                	sar    %eax
 8048416:	74 1b                	je     8048433 <register_tm_clones+0x33>
 8048418:	ba 00 00 00 00       	mov    $0x0,%edx
 804841d:	85 d2                	test   %edx,%edx
 804841f:	74 12                	je     8048433 <register_tm_clones+0x33>
 8048421:	55                   	push   %ebp
 8048422:	89 e5                	mov    %esp,%ebp
 8048424:	83 ec 10             	sub    $0x10,%esp
 8048427:	50                   	push   %eax
 8048428:	68 34 a0 04 08       	push   $0x804a034
 804842d:	ff d2                	call   *%edx
 804842f:	83 c4 10             	add    $0x10,%esp
 8048432:	c9                   	leave  
 8048433:	f3 c3                	repz ret 
 8048435:	8d 74 26 00          	lea    0x0(%esi,%eiz,1),%esi
 8048439:	8d bc 27 00 00 00 00 	lea    0x0(%edi,%eiz,1),%edi

08048440 <__do_global_dtors_aux>:
 8048440:	80 3d 31 a0 04 08 00 	cmpb   $0x0,0x804a031
 8048447:	75 13                	jne    804845c <__do_global_dtors_aux+0x1c>
 8048449:	55                   	push   %ebp
 804844a:	89 e5                	mov    %esp,%ebp
 804844c:	83 ec 08             	sub    $0x8,%esp
 804844f:	e8 7c ff ff ff       	call   80483d0 <deregister_tm_clones>
 8048454:	c6 05 31 a0 04 08 01 	movb   $0x1,0x804a031
 804845b:	c9                   	leave  
 804845c:	f3 c3                	repz ret 
 804845e:	66 90                	xchg   %ax,%ax

08048460 <frame_dummy>:
 8048460:	b8 10 9f 04 08       	mov    $0x8049f10,%eax
 8048465:	8b 10                	mov    (%eax),%edx
 8048467:	85 d2                	test   %edx,%edx
 8048469:	75 05                	jne    8048470 <frame_dummy+0x10>
 804846b:	eb 93                	jmp    8048400 <register_tm_clones>
 804846d:	8d 76 00             	lea    0x0(%esi),%esi
 8048470:	ba 00 00 00 00       	mov    $0x0,%edx
 8048475:	85 d2                	test   %edx,%edx
 8048477:	74 f2                	je     804846b <frame_dummy+0xb>
 8048479:	55                   	push   %ebp
 804847a:	89 e5                	mov    %esp,%ebp
 804847c:	83 ec 14             	sub    $0x14,%esp
 804847f:	50                   	push   %eax
 8048480:	ff d2                	call   *%edx
 8048482:	83 c4 10             	add    $0x10,%esp
 8048485:	c9                   	leave  
 8048486:	e9 75 ff ff ff       	jmp    8048400 <register_tm_clones>

0804848b <print_msg>:
 804848b:	55                   	push   %ebp
 804848c:	89 e5                	mov    %esp,%ebp
 804848e:	83 ec 08             	sub    $0x8,%esp
 8048491:	83 ec 08             	sub    $0x8,%esp
 8048494:	68 24 a0 04 08       	push   $0x804a024
 8048499:	68 b0 87 04 08       	push   $0x80487b0
 804849e:	e8 9d fe ff ff       	call   8048340 <printf@plt>
 80484a3:	83 c4 10             	add    $0x10,%esp
 80484a6:	90                   	nop
 80484a7:	c9                   	leave  
 80484a8:	c3                   	ret    

080484a9 <complex_function0>:
 80484a9:	55                   	push   %ebp
 80484aa:	89 e5                	mov    %esp,%ebp
 80484ac:	81 75 08 37 4b d8 31 	xorl   $0x31d84b37,0x8(%ebp)
 80484b3:	81 75 08 cd 03 d4 e6 	xorl   $0xe6d403cd,0x8(%ebp)
 80484ba:	81 75 08 d2 7e 27 20 	xorl   $0x20277ed2,0x8(%ebp)
 80484c1:	81 75 08 0f 12 56 e9 	xorl   $0xe956120f,0x8(%ebp)
 80484c8:	81 75 08 9f d5 fb b2 	xorl   $0xb2fbd59f,0x8(%ebp)
 80484cf:	81 75 08 91 e0 39 98 	xorl   $0x9839e091,0x8(%ebp)
 80484d6:	81 75 08 be 1b 09 fc 	xorl   $0xfc091bbe,0x8(%ebp)
 80484dd:	81 75 08 62 ab 92 c7 	xorl   $0xc792ab62,0x8(%ebp)
 80484e4:	81 75 08 4b 9e ac a5 	xorl   $0xa5ac9e4b,0x8(%ebp)
 80484eb:	81 75 08 18 05 74 4b 	xorl   $0x4b740518,0x8(%ebp)
 80484f2:	81 75 08 a4 50 10 f4 	xorl   $0xf41050a4,0x8(%ebp)
 80484f9:	81 75 08 3b 5b b3 a3 	xorl   $0xa3b35b3b,0x8(%ebp)
 8048500:	81 75 08 da de ad d3 	xorl   $0xd3addeda,0x8(%ebp)
 8048507:	81 75 08 77 45 0c 88 	xorl   $0x880c4577,0x8(%ebp)
 804850e:	81 75 08 ce c0 45 34 	xorl   $0x3445c0ce,0x8(%ebp)
 8048515:	81 75 08 f3 69 8f 1f 	xorl   $0x1f8f69f3,0x8(%ebp)
 804851c:	81 75 08 a4 4e d7 a8 	xorl   $0xa8d74ea4,0x8(%ebp)
 8048523:	81 75 08 19 14 3f 7b 	xorl   $0x7b3f1419,0x8(%ebp)
 804852a:	81 75 08 4a aa 0f b3 	xorl   $0xb30faa4a,0x8(%ebp)
 8048531:	81 75 08 c4 7d 72 2d 	xorl   $0x2d727dc4,0x8(%ebp)
 8048538:	81 75 08 3b 4e 03 38 	xorl   $0x38034e3b,0x8(%ebp)
 804853f:	81 75 08 67 43 ed 3e 	xorl   $0x3eed4367,0x8(%ebp)
 8048546:	81 75 08 b6 06 d5 db 	xorl   $0xdbd506b6,0x8(%ebp)
 804854d:	81 75 08 5f 7f 56 44 	xorl   $0x44567f5f,0x8(%ebp)
 8048554:	81 75 08 d0 9a c3 ad 	xorl   $0xadc39ad0,0x8(%ebp)
 804855b:	81 75 08 70 ba ab aa 	xorl   $0xaaabba70,0x8(%ebp)
 8048562:	81 75 08 51 2a 31 48 	xorl   $0x48312a51,0x8(%ebp)
 8048569:	81 75 08 5d 00 f7 ab 	xorl   $0xabf7005d,0x8(%ebp)
 8048570:	81 75 08 e7 17 d0 d1 	xorl   $0xd1d017e7,0x8(%ebp)
 8048577:	81 75 08 02 f5 e9 50 	xorl   $0x50e9f502,0x8(%ebp)
 804857e:	81 75 08 dd 10 24 8e 	xorl   $0x8e2410dd,0x8(%ebp)
 8048585:	81 75 08 5e 65 da eb 	xorl   $0xebda655e,0x8(%ebp)
 804858c:	8b 45 08             	mov    0x8(%ebp),%eax
 804858f:	5d                   	pop    %ebp
 8048590:	c3                   	ret    

08048591 <complex_function1>:
 8048591:	55                   	push   %ebp
 8048592:	89 e5                	mov    %esp,%ebp
 8048594:	81 75 08 1a d8 e8 5e 	xorl   $0x5ee8d81a,0x8(%ebp)
 804859b:	81 75 08 08 66 50 9e 	xorl   $0x9e506608,0x8(%ebp)
 80485a2:	81 75 08 b9 0c dd 5f 	xorl   $0x5fdd0cb9,0x8(%ebp)
 80485a9:	81 75 08 6b 7e 37 5d 	xorl   $0x5d377e6b,0x8(%ebp)
 80485b0:	81 75 08 7c 5b 49 38 	xorl   $0x38495b7c,0x8(%ebp)
 80485b7:	81 75 08 a1 7d 98 e5 	xorl   $0xe5987da1,0x8(%ebp)
 80485be:	81 75 08 a3 76 48 8e 	xorl   $0x8e4876a3,0x8(%ebp)
 80485c5:	81 75 08 59 74 28 47 	xorl   $0x47287459,0x8(%ebp)
 80485cc:	81 75 08 12 c8 7f 11 	xorl   $0x117fc812,0x8(%ebp)
 80485d3:	81 75 08 70 d8 4c 77 	xorl   $0x774cd870,0x8(%ebp)
 80485da:	81 75 08 a1 03 92 31 	xorl   $0x319203a1,0x8(%ebp)
 80485e1:	81 75 08 ab 63 1a ea 	xorl   $0xea1a63ab,0x8(%ebp)
 80485e8:	81 75 08 d0 dc b6 d9 	xorl   $0xd9b6dcd0,0x8(%ebp)
 80485ef:	81 75 08 e9 14 f2 58 	xorl   $0x58f214e9,0x8(%ebp)
 80485f6:	81 75 08 e5 12 6c 67 	xorl   $0x676c12e5,0x8(%ebp)
 80485fd:	81 75 08 2d a2 98 f7 	xorl   $0xf798a22d,0x8(%ebp)
 8048604:	81 75 08 f6 b4 3d 31 	xorl   $0x313db4f6,0x8(%ebp)
 804860b:	81 75 08 1a f5 bf 28 	xorl   $0x28bff51a,0x8(%ebp)
 8048612:	81 75 08 6f 66 a2 21 	xorl   $0x21a2666f,0x8(%ebp)
 8048619:	81 75 08 94 65 21 39 	xorl   $0x39216594,0x8(%ebp)
 8048620:	81 75 08 43 e2 8a 4a 	xorl   $0x4a8ae243,0x8(%ebp)
 8048627:	81 75 08 26 57 85 10 	xorl   $0x10855726,0x8(%ebp)
 804862e:	81 75 08 70 24 93 58 	xorl   $0x58932470,0x8(%ebp)
 8048635:	81 75 08 35 8f 95 98 	xorl   $0x98958f35,0x8(%ebp)
 804863c:	81 75 08 8c cb 07 42 	xorl   $0x4207cb8c,0x8(%ebp)
 8048643:	81 75 08 f1 78 fa a0 	xorl   $0xa0fa78f1,0x8(%ebp)
 804864a:	81 75 08 3f 00 52 33 	xorl   $0x3352003f,0x8(%ebp)
 8048651:	81 75 08 e6 f1 4d 92 	xorl   $0x924df1e6,0x8(%ebp)
 8048658:	81 75 08 0e 06 df 83 	xorl   $0x83df060e,0x8(%ebp)
 804865f:	81 75 08 46 98 11 a2 	xorl   $0xa2119846,0x8(%ebp)
 8048666:	81 75 08 98 e8 05 1c 	xorl   $0x1c05e898,0x8(%ebp)
 804866d:	81 75 08 ed 3d 75 ae 	xorl   $0xae753ded,0x8(%ebp)
 8048674:	8b 45 08             	mov    0x8(%ebp),%eax
 8048677:	5d                   	pop    %ebp
 8048678:	c3                   	ret    

08048679 <handle_user>:
 8048679:	55                   	push   %ebp
 804867a:	89 e5                	mov    %esp,%ebp
 804867c:	83 ec 18             	sub    $0x18,%esp
 804867f:	83 ec 04             	sub    $0x4,%esp
 8048682:	8d 45 f0             	lea    -0x10(%ebp),%eax
 8048685:	50                   	push   %eax
 8048686:	8d 45 f4             	lea    -0xc(%ebp),%eax
 8048689:	50                   	push   %eax
 804868a:	68 b3 87 04 08       	push   $0x80487b3
 804868f:	e8 dc fc ff ff       	call   8048370 <__isoc99_scanf@plt>
 8048694:	83 c4 10             	add    $0x10,%esp
 8048697:	8b 45 f4             	mov    -0xc(%ebp),%eax
 804869a:	83 ec 0c             	sub    $0xc,%esp
 804869d:	50                   	push   %eax
 804869e:	e8 06 fe ff ff       	call   80484a9 <complex_function0>
 80486a3:	83 c4 10             	add    $0x10,%esp
 80486a6:	89 45 f4             	mov    %eax,-0xc(%ebp)
 80486a9:	8b 45 f0             	mov    -0x10(%ebp),%eax
 80486ac:	83 ec 0c             	sub    $0xc,%esp
 80486af:	50                   	push   %eax
 80486b0:	e8 dc fe ff ff       	call   8048591 <complex_function1>
 80486b5:	83 c4 10             	add    $0x10,%esp
 80486b8:	89 45 f0             	mov    %eax,-0x10(%ebp)
 80486bb:	8b 45 f4             	mov    -0xc(%ebp),%eax
 80486be:	3d d1 24 30 77       	cmp    $0x773024d1,%eax
 80486c3:	75 0a                	jne    80486cf <handle_user+0x56>
 80486c5:	8b 45 f0             	mov    -0x10(%ebp),%eax
 80486c8:	3d cf 11 43 bc       	cmp    $0xbc4311cf,%eax
 80486cd:	74 12                	je     80486e1 <handle_user+0x68>
 80486cf:	83 ec 0c             	sub    $0xc,%esp
 80486d2:	68 b9 87 04 08       	push   $0x80487b9
 80486d7:	e8 74 fc ff ff       	call   8048350 <puts@plt>
 80486dc:	83 c4 10             	add    $0x10,%esp
 80486df:	eb 10                	jmp    80486f1 <handle_user+0x78>
 80486e1:	83 ec 0c             	sub    $0xc,%esp
 80486e4:	68 c4 87 04 08       	push   $0x80487c4
 80486e9:	e8 62 fc ff ff       	call   8048350 <puts@plt>
 80486ee:	83 c4 10             	add    $0x10,%esp
 80486f1:	90                   	nop
 80486f2:	c9                   	leave  
 80486f3:	c3                   	ret    

080486f4 <main>:
 80486f4:	8d 4c 24 04          	lea    0x4(%esp),%ecx
 80486f8:	83 e4 f0             	and    $0xfffffff0,%esp
 80486fb:	ff 71 fc             	pushl  -0x4(%ecx)
 80486fe:	55                   	push   %ebp
 80486ff:	89 e5                	mov    %esp,%ebp
 8048701:	51                   	push   %ecx
 8048702:	83 ec 04             	sub    $0x4,%esp
 8048705:	83 ec 0c             	sub    $0xc,%esp
 8048708:	68 ce 87 04 08       	push   $0x80487ce
 804870d:	e8 2e fc ff ff       	call   8048340 <printf@plt>
 8048712:	83 c4 10             	add    $0x10,%esp
 8048715:	e8 5f ff ff ff       	call   8048679 <handle_user>
 804871a:	b8 00 00 00 00       	mov    $0x0,%eax
 804871f:	8b 4d fc             	mov    -0x4(%ebp),%ecx
 8048722:	c9                   	leave  
 8048723:	8d 61 fc             	lea    -0x4(%ecx),%esp
 8048726:	c3                   	ret    
 8048727:	66 90                	xchg   %ax,%ax
 8048729:	66 90                	xchg   %ax,%ax
 804872b:	66 90                	xchg   %ax,%ax
 804872d:	66 90                	xchg   %ax,%ax
 804872f:	90                   	nop

08048730 <__libc_csu_init>:
 8048730:	55                   	push   %ebp
 8048731:	57                   	push   %edi
 8048732:	56                   	push   %esi
 8048733:	53                   	push   %ebx
 8048734:	e8 87 fc ff ff       	call   80483c0 <__x86.get_pc_thunk.bx>
 8048739:	81 c3 c7 18 00 00    	add    $0x18c7,%ebx
 804873f:	83 ec 0c             	sub    $0xc,%esp
 8048742:	8b 6c 24 20          	mov    0x20(%esp),%ebp
 8048746:	8d b3 0c ff ff ff    	lea    -0xf4(%ebx),%esi
 804874c:	e8 bb fb ff ff       	call   804830c <_init>
 8048751:	8d 83 08 ff ff ff    	lea    -0xf8(%ebx),%eax
 8048757:	29 c6                	sub    %eax,%esi
 8048759:	c1 fe 02             	sar    $0x2,%esi
 804875c:	85 f6                	test   %esi,%esi
 804875e:	74 25                	je     8048785 <__libc_csu_init+0x55>
 8048760:	31 ff                	xor    %edi,%edi
 8048762:	8d b6 00 00 00 00    	lea    0x0(%esi),%esi
 8048768:	83 ec 04             	sub    $0x4,%esp
 804876b:	ff 74 24 2c          	pushl  0x2c(%esp)
 804876f:	ff 74 24 2c          	pushl  0x2c(%esp)
 8048773:	55                   	push   %ebp
 8048774:	ff 94 bb 08 ff ff ff 	call   *-0xf8(%ebx,%edi,4)
 804877b:	83 c7 01             	add    $0x1,%edi
 804877e:	83 c4 10             	add    $0x10,%esp
 8048781:	39 f7                	cmp    %esi,%edi
 8048783:	75 e3                	jne    8048768 <__libc_csu_init+0x38>
 8048785:	83 c4 0c             	add    $0xc,%esp
 8048788:	5b                   	pop    %ebx
 8048789:	5e                   	pop    %esi
 804878a:	5f                   	pop    %edi
 804878b:	5d                   	pop    %ebp
 804878c:	c3                   	ret    
 804878d:	8d 76 00             	lea    0x0(%esi),%esi

08048790 <__libc_csu_fini>:
 8048790:	f3 c3                	repz ret 

Disassembly of section .fini:

08048794 <_fini>:
 8048794:	53                   	push   %ebx
 8048795:	83 ec 08             	sub    $0x8,%esp
 8048798:	e8 23 fc ff ff       	call   80483c0 <__x86.get_pc_thunk.bx>
 804879d:	81 c3 63 18 00 00    	add    $0x1863,%ebx
 80487a3:	83 c4 08             	add    $0x8,%esp
 80487a6:	5b                   	pop    %ebx
 80487a7:	c3                   	ret    
