
06_angr_symbolic_dynamic_memory:     file format elf32-i386


Disassembly of section .init:

080483b0 <_init>:
 80483b0:	53                   	push   %ebx
 80483b1:	83 ec 08             	sub    $0x8,%esp
 80483b4:	e8 07 01 00 00       	call   80484c0 <__x86.get_pc_thunk.bx>
 80483b9:	81 c3 47 1c 00 00    	add    $0x1c47,%ebx
 80483bf:	8b 83 fc ff ff ff    	mov    -0x4(%ebx),%eax
 80483c5:	85 c0                	test   %eax,%eax
 80483c7:	74 05                	je     80483ce <_init+0x1e>
 80483c9:	e8 b2 00 00 00       	call   8048480 <__gmon_start__@plt>
 80483ce:	83 c4 08             	add    $0x8,%esp
 80483d1:	5b                   	pop    %ebx
 80483d2:	c3                   	ret    

Disassembly of section .plt:

080483e0 <.plt>:
 80483e0:	ff 35 04 a0 04 08    	pushl  0x804a004
 80483e6:	ff 25 08 a0 04 08    	jmp    *0x804a008
 80483ec:	00 00                	add    %al,(%eax)
	...

080483f0 <printf@plt>:
 80483f0:	ff 25 0c a0 04 08    	jmp    *0x804a00c
 80483f6:	68 00 00 00 00       	push   $0x0
 80483fb:	e9 e0 ff ff ff       	jmp    80483e0 <.plt>

08048400 <free@plt>:
 8048400:	ff 25 10 a0 04 08    	jmp    *0x804a010
 8048406:	68 08 00 00 00       	push   $0x8
 804840b:	e9 d0 ff ff ff       	jmp    80483e0 <.plt>

08048410 <malloc@plt>:
 8048410:	ff 25 14 a0 04 08    	jmp    *0x804a014
 8048416:	68 10 00 00 00       	push   $0x10
 804841b:	e9 c0 ff ff ff       	jmp    80483e0 <.plt>

08048420 <puts@plt>:
 8048420:	ff 25 18 a0 04 08    	jmp    *0x804a018
 8048426:	68 18 00 00 00       	push   $0x18
 804842b:	e9 b0 ff ff ff       	jmp    80483e0 <.plt>

08048430 <exit@plt>:
 8048430:	ff 25 1c a0 04 08    	jmp    *0x804a01c
 8048436:	68 20 00 00 00       	push   $0x20
 804843b:	e9 a0 ff ff ff       	jmp    80483e0 <.plt>

08048440 <__libc_start_main@plt>:
 8048440:	ff 25 20 a0 04 08    	jmp    *0x804a020
 8048446:	68 28 00 00 00       	push   $0x28
 804844b:	e9 90 ff ff ff       	jmp    80483e0 <.plt>

08048450 <memset@plt>:
 8048450:	ff 25 24 a0 04 08    	jmp    *0x804a024
 8048456:	68 30 00 00 00       	push   $0x30
 804845b:	e9 80 ff ff ff       	jmp    80483e0 <.plt>

08048460 <__isoc99_scanf@plt>:
 8048460:	ff 25 28 a0 04 08    	jmp    *0x804a028
 8048466:	68 38 00 00 00       	push   $0x38
 804846b:	e9 70 ff ff ff       	jmp    80483e0 <.plt>

08048470 <strncmp@plt>:
 8048470:	ff 25 2c a0 04 08    	jmp    *0x804a02c
 8048476:	68 40 00 00 00       	push   $0x40
 804847b:	e9 60 ff ff ff       	jmp    80483e0 <.plt>

Disassembly of section .plt.got:

08048480 <__gmon_start__@plt>:
 8048480:	ff 25 fc 9f 04 08    	jmp    *0x8049ffc
 8048486:	66 90                	xchg   %ax,%ax

Disassembly of section .text:

08048490 <_start>:
 8048490:	31 ed                	xor    %ebp,%ebp
 8048492:	5e                   	pop    %esi
 8048493:	89 e1                	mov    %esp,%ecx
 8048495:	83 e4 f0             	and    $0xfffffff0,%esp
 8048498:	50                   	push   %eax
 8048499:	54                   	push   %esp
 804849a:	52                   	push   %edx
 804849b:	68 00 88 04 08       	push   $0x8048800
 80484a0:	68 a0 87 04 08       	push   $0x80487a0
 80484a5:	51                   	push   %ecx
 80484a6:	56                   	push   %esi
 80484a7:	68 0c 86 04 08       	push   $0x804860c
 80484ac:	e8 8f ff ff ff       	call   8048440 <__libc_start_main@plt>
 80484b1:	f4                   	hlt    
 80484b2:	66 90                	xchg   %ax,%ax
 80484b4:	66 90                	xchg   %ax,%ax
 80484b6:	66 90                	xchg   %ax,%ax
 80484b8:	66 90                	xchg   %ax,%ax
 80484ba:	66 90                	xchg   %ax,%ax
 80484bc:	66 90                	xchg   %ax,%ax
 80484be:	66 90                	xchg   %ax,%ax

080484c0 <__x86.get_pc_thunk.bx>:
 80484c0:	8b 1c 24             	mov    (%esp),%ebx
 80484c3:	c3                   	ret    
 80484c4:	66 90                	xchg   %ax,%ax
 80484c6:	66 90                	xchg   %ax,%ax
 80484c8:	66 90                	xchg   %ax,%ax
 80484ca:	66 90                	xchg   %ax,%ax
 80484cc:	66 90                	xchg   %ax,%ax
 80484ce:	66 90                	xchg   %ax,%ax

080484d0 <deregister_tm_clones>:
 80484d0:	b8 4b a0 04 08       	mov    $0x804a04b,%eax
 80484d5:	2d 48 a0 04 08       	sub    $0x804a048,%eax
 80484da:	83 f8 06             	cmp    $0x6,%eax
 80484dd:	76 1a                	jbe    80484f9 <deregister_tm_clones+0x29>
 80484df:	b8 00 00 00 00       	mov    $0x0,%eax
 80484e4:	85 c0                	test   %eax,%eax
 80484e6:	74 11                	je     80484f9 <deregister_tm_clones+0x29>
 80484e8:	55                   	push   %ebp
 80484e9:	89 e5                	mov    %esp,%ebp
 80484eb:	83 ec 14             	sub    $0x14,%esp
 80484ee:	68 48 a0 04 08       	push   $0x804a048
 80484f3:	ff d0                	call   *%eax
 80484f5:	83 c4 10             	add    $0x10,%esp
 80484f8:	c9                   	leave  
 80484f9:	f3 c3                	repz ret 
 80484fb:	90                   	nop
 80484fc:	8d 74 26 00          	lea    0x0(%esi,%eiz,1),%esi

08048500 <register_tm_clones>:
 8048500:	b8 48 a0 04 08       	mov    $0x804a048,%eax
 8048505:	2d 48 a0 04 08       	sub    $0x804a048,%eax
 804850a:	c1 f8 02             	sar    $0x2,%eax
 804850d:	89 c2                	mov    %eax,%edx
 804850f:	c1 ea 1f             	shr    $0x1f,%edx
 8048512:	01 d0                	add    %edx,%eax
 8048514:	d1 f8                	sar    %eax
 8048516:	74 1b                	je     8048533 <register_tm_clones+0x33>
 8048518:	ba 00 00 00 00       	mov    $0x0,%edx
 804851d:	85 d2                	test   %edx,%edx
 804851f:	74 12                	je     8048533 <register_tm_clones+0x33>
 8048521:	55                   	push   %ebp
 8048522:	89 e5                	mov    %esp,%ebp
 8048524:	83 ec 10             	sub    $0x10,%esp
 8048527:	50                   	push   %eax
 8048528:	68 48 a0 04 08       	push   $0x804a048
 804852d:	ff d2                	call   *%edx
 804852f:	83 c4 10             	add    $0x10,%esp
 8048532:	c9                   	leave  
 8048533:	f3 c3                	repz ret 
 8048535:	8d 74 26 00          	lea    0x0(%esi,%eiz,1),%esi
 8048539:	8d bc 27 00 00 00 00 	lea    0x0(%edi,%eiz,1),%edi

08048540 <__do_global_dtors_aux>:
 8048540:	80 3d 60 a0 04 08 00 	cmpb   $0x0,0x804a060
 8048547:	75 13                	jne    804855c <__do_global_dtors_aux+0x1c>
 8048549:	55                   	push   %ebp
 804854a:	89 e5                	mov    %esp,%ebp
 804854c:	83 ec 08             	sub    $0x8,%esp
 804854f:	e8 7c ff ff ff       	call   80484d0 <deregister_tm_clones>
 8048554:	c6 05 60 a0 04 08 01 	movb   $0x1,0x804a060
 804855b:	c9                   	leave  
 804855c:	f3 c3                	repz ret 
 804855e:	66 90                	xchg   %ax,%ax

08048560 <frame_dummy>:
 8048560:	b8 10 9f 04 08       	mov    $0x8049f10,%eax
 8048565:	8b 10                	mov    (%eax),%edx
 8048567:	85 d2                	test   %edx,%edx
 8048569:	75 05                	jne    8048570 <frame_dummy+0x10>
 804856b:	eb 93                	jmp    8048500 <register_tm_clones>
 804856d:	8d 76 00             	lea    0x0(%esi),%esi
 8048570:	ba 00 00 00 00       	mov    $0x0,%edx
 8048575:	85 d2                	test   %edx,%edx
 8048577:	74 f2                	je     804856b <frame_dummy+0xb>
 8048579:	55                   	push   %ebp
 804857a:	89 e5                	mov    %esp,%ebp
 804857c:	83 ec 14             	sub    $0x14,%esp
 804857f:	50                   	push   %eax
 8048580:	ff d2                	call   *%edx
 8048582:	83 c4 10             	add    $0x10,%esp
 8048585:	c9                   	leave  
 8048586:	e9 75 ff ff ff       	jmp    8048500 <register_tm_clones>

0804858b <print_msg>:
 804858b:	55                   	push   %ebp
 804858c:	89 e5                	mov    %esp,%ebp
 804858e:	83 ec 08             	sub    $0x8,%esp
 8048591:	83 ec 08             	sub    $0x8,%esp
 8048594:	68 38 a0 04 08       	push   $0x804a038
 8048599:	68 20 88 04 08       	push   $0x8048820
 804859e:	e8 4d fe ff ff       	call   80483f0 <printf@plt>
 80485a3:	83 c4 10             	add    $0x10,%esp
 80485a6:	90                   	nop
 80485a7:	c9                   	leave  
 80485a8:	c3                   	ret    

080485a9 <complex_function>:
 80485a9:	55                   	push   %ebp
 80485aa:	89 e5                	mov    %esp,%ebp
 80485ac:	83 ec 08             	sub    $0x8,%esp
 80485af:	83 7d 08 40          	cmpl   $0x40,0x8(%ebp)
 80485b3:	7e 06                	jle    80485bb <complex_function+0x12>
 80485b5:	83 7d 08 5a          	cmpl   $0x5a,0x8(%ebp)
 80485b9:	7e 1a                	jle    80485d5 <complex_function+0x2c>
 80485bb:	83 ec 0c             	sub    $0xc,%esp
 80485be:	68 23 88 04 08       	push   $0x8048823
 80485c3:	e8 58 fe ff ff       	call   8048420 <puts@plt>
 80485c8:	83 c4 10             	add    $0x10,%esp
 80485cb:	83 ec 0c             	sub    $0xc,%esp
 80485ce:	6a 01                	push   $0x1
 80485d0:	e8 5b fe ff ff       	call   8048430 <exit@plt>
 80485d5:	8b 45 08             	mov    0x8(%ebp),%eax
 80485d8:	8d 48 bf             	lea    -0x41(%eax),%ecx
 80485db:	8b 55 0c             	mov    0xc(%ebp),%edx
 80485de:	89 d0                	mov    %edx,%eax
 80485e0:	01 c0                	add    %eax,%eax
 80485e2:	01 d0                	add    %edx,%eax
 80485e4:	c1 e0 02             	shl    $0x2,%eax
 80485e7:	01 d0                	add    %edx,%eax
 80485e9:	01 c1                	add    %eax,%ecx
 80485eb:	ba 4f ec c4 4e       	mov    $0x4ec4ec4f,%edx
 80485f0:	89 c8                	mov    %ecx,%eax
 80485f2:	f7 ea                	imul   %edx
 80485f4:	c1 fa 03             	sar    $0x3,%edx
 80485f7:	89 c8                	mov    %ecx,%eax
 80485f9:	c1 f8 1f             	sar    $0x1f,%eax
 80485fc:	29 c2                	sub    %eax,%edx
 80485fe:	89 d0                	mov    %edx,%eax
 8048600:	6b c0 1a             	imul   $0x1a,%eax,%eax
 8048603:	29 c1                	sub    %eax,%ecx
 8048605:	89 c8                	mov    %ecx,%eax
 8048607:	83 c0 41             	add    $0x41,%eax
 804860a:	c9                   	leave  
 804860b:	c3                   	ret    

0804860c <main>:
 804860c:	8d 4c 24 04          	lea    0x4(%esp),%ecx
 8048610:	83 e4 f0             	and    $0xfffffff0,%esp
 8048613:	ff 71 fc             	pushl  -0x4(%ecx)
 8048616:	55                   	push   %ebp
 8048617:	89 e5                	mov    %esp,%ebp
 8048619:	53                   	push   %ebx
 804861a:	51                   	push   %ecx
 804861b:	83 ec 10             	sub    $0x10,%esp
 804861e:	83 ec 0c             	sub    $0xc,%esp
 8048621:	6a 09                	push   $0x9
 8048623:	e8 e8 fd ff ff       	call   8048410 <malloc@plt>
 8048628:	83 c4 10             	add    $0x10,%esp
 804862b:	a3 a4 c8 bc 0a       	mov    %eax,0xabcc8a4
 8048630:	83 ec 0c             	sub    $0xc,%esp
 8048633:	6a 09                	push   $0x9
 8048635:	e8 d6 fd ff ff       	call   8048410 <malloc@plt>
 804863a:	83 c4 10             	add    $0x10,%esp
 804863d:	a3 ac c8 bc 0a       	mov    %eax,0xabcc8ac
 8048642:	a1 a4 c8 bc 0a       	mov    0xabcc8a4,%eax
 8048647:	83 ec 04             	sub    $0x4,%esp
 804864a:	6a 09                	push   $0x9
 804864c:	6a 00                	push   $0x0
 804864e:	50                   	push   %eax
 804864f:	e8 fc fd ff ff       	call   8048450 <memset@plt>
 8048654:	83 c4 10             	add    $0x10,%esp
 8048657:	a1 ac c8 bc 0a       	mov    0xabcc8ac,%eax
 804865c:	83 ec 04             	sub    $0x4,%esp
 804865f:	6a 09                	push   $0x9
 8048661:	6a 00                	push   $0x0
 8048663:	50                   	push   %eax
 8048664:	e8 e7 fd ff ff       	call   8048450 <memset@plt>
 8048669:	83 c4 10             	add    $0x10,%esp
 804866c:	83 ec 0c             	sub    $0xc,%esp
 804866f:	68 2e 88 04 08       	push   $0x804882e
 8048674:	e8 77 fd ff ff       	call   80483f0 <printf@plt>
 8048679:	83 c4 10             	add    $0x10,%esp
 804867c:	8b 15 ac c8 bc 0a    	mov    0xabcc8ac,%edx
 8048682:	a1 a4 c8 bc 0a       	mov    0xabcc8a4,%eax
 8048687:	83 ec 04             	sub    $0x4,%esp
 804868a:	52                   	push   %edx
 804868b:	50                   	push   %eax
 804868c:	68 43 88 04 08       	push   $0x8048843
 8048691:	e8 ca fd ff ff       	call   8048460 <__isoc99_scanf@plt>
 8048696:	83 c4 10             	add    $0x10,%esp
 8048699:	c7 45 f4 00 00 00 00 	movl   $0x0,-0xc(%ebp)
 80486a0:	eb 64                	jmp    8048706 <main+0xfa>
 80486a2:	8b 15 a4 c8 bc 0a    	mov    0xabcc8a4,%edx
 80486a8:	8b 45 f4             	mov    -0xc(%ebp),%eax
 80486ab:	8d 1c 02             	lea    (%edx,%eax,1),%ebx
 80486ae:	8b 15 a4 c8 bc 0a    	mov    0xabcc8a4,%edx
 80486b4:	8b 45 f4             	mov    -0xc(%ebp),%eax
 80486b7:	01 d0                	add    %edx,%eax
 80486b9:	0f b6 00             	movzbl (%eax),%eax
 80486bc:	0f be c0             	movsbl %al,%eax
 80486bf:	83 ec 08             	sub    $0x8,%esp
 80486c2:	ff 75 f4             	pushl  -0xc(%ebp)
 80486c5:	50                   	push   %eax
 80486c6:	e8 de fe ff ff       	call   80485a9 <complex_function>
 80486cb:	83 c4 10             	add    $0x10,%esp
 80486ce:	88 03                	mov    %al,(%ebx)
 80486d0:	8b 15 ac c8 bc 0a    	mov    0xabcc8ac,%edx
 80486d6:	8b 45 f4             	mov    -0xc(%ebp),%eax
 80486d9:	8d 1c 02             	lea    (%edx,%eax,1),%ebx
 80486dc:	8b 45 f4             	mov    -0xc(%ebp),%eax
 80486df:	8d 50 20             	lea    0x20(%eax),%edx
 80486e2:	8b 0d ac c8 bc 0a    	mov    0xabcc8ac,%ecx
 80486e8:	8b 45 f4             	mov    -0xc(%ebp),%eax
 80486eb:	01 c8                	add    %ecx,%eax
 80486ed:	0f b6 00             	movzbl (%eax),%eax
 80486f0:	0f be c0             	movsbl %al,%eax
 80486f3:	83 ec 08             	sub    $0x8,%esp
 80486f6:	52                   	push   %edx
 80486f7:	50                   	push   %eax
 80486f8:	e8 ac fe ff ff       	call   80485a9 <complex_function>
 80486fd:	83 c4 10             	add    $0x10,%esp
 8048700:	88 03                	mov    %al,(%ebx)
 8048702:	83 45 f4 01          	addl   $0x1,-0xc(%ebp)
 8048706:	83 7d f4 07          	cmpl   $0x7,-0xc(%ebp)
 804870a:	7e 96                	jle    80486a2 <main+0x96>
 804870c:	a1 a4 c8 bc 0a       	mov    0xabcc8a4,%eax
 8048711:	83 ec 04             	sub    $0x4,%esp
 8048714:	6a 08                	push   $0x8
 8048716:	68 4b 88 04 08       	push   $0x804884b
 804871b:	50                   	push   %eax
 804871c:	e8 4f fd ff ff       	call   8048470 <strncmp@plt>
 8048721:	83 c4 10             	add    $0x10,%esp
 8048724:	85 c0                	test   %eax,%eax
 8048726:	75 1c                	jne    8048744 <main+0x138>
 8048728:	a1 ac c8 bc 0a       	mov    0xabcc8ac,%eax
 804872d:	83 ec 04             	sub    $0x4,%esp
 8048730:	6a 08                	push   $0x8
 8048732:	68 54 88 04 08       	push   $0x8048854
 8048737:	50                   	push   %eax
 8048738:	e8 33 fd ff ff       	call   8048470 <strncmp@plt>
 804873d:	83 c4 10             	add    $0x10,%esp
 8048740:	85 c0                	test   %eax,%eax
 8048742:	74 12                	je     8048756 <main+0x14a>
 8048744:	83 ec 0c             	sub    $0xc,%esp
 8048747:	68 23 88 04 08       	push   $0x8048823
 804874c:	e8 cf fc ff ff       	call   8048420 <puts@plt>
 8048751:	83 c4 10             	add    $0x10,%esp
 8048754:	eb 10                	jmp    8048766 <main+0x15a>
 8048756:	83 ec 0c             	sub    $0xc,%esp
 8048759:	68 5d 88 04 08       	push   $0x804885d
 804875e:	e8 bd fc ff ff       	call   8048420 <puts@plt>
 8048763:	83 c4 10             	add    $0x10,%esp
 8048766:	a1 a4 c8 bc 0a       	mov    0xabcc8a4,%eax
 804876b:	83 ec 0c             	sub    $0xc,%esp
 804876e:	50                   	push   %eax
 804876f:	e8 8c fc ff ff       	call   8048400 <free@plt>
 8048774:	83 c4 10             	add    $0x10,%esp
 8048777:	a1 ac c8 bc 0a       	mov    0xabcc8ac,%eax
 804877c:	83 ec 0c             	sub    $0xc,%esp
 804877f:	50                   	push   %eax
 8048780:	e8 7b fc ff ff       	call   8048400 <free@plt>
 8048785:	83 c4 10             	add    $0x10,%esp
 8048788:	b8 00 00 00 00       	mov    $0x0,%eax
 804878d:	8d 65 f8             	lea    -0x8(%ebp),%esp
 8048790:	59                   	pop    %ecx
 8048791:	5b                   	pop    %ebx
 8048792:	5d                   	pop    %ebp
 8048793:	8d 61 fc             	lea    -0x4(%ecx),%esp
 8048796:	c3                   	ret    
 8048797:	66 90                	xchg   %ax,%ax
 8048799:	66 90                	xchg   %ax,%ax
 804879b:	66 90                	xchg   %ax,%ax
 804879d:	66 90                	xchg   %ax,%ax
 804879f:	90                   	nop

080487a0 <__libc_csu_init>:
 80487a0:	55                   	push   %ebp
 80487a1:	57                   	push   %edi
 80487a2:	56                   	push   %esi
 80487a3:	53                   	push   %ebx
 80487a4:	e8 17 fd ff ff       	call   80484c0 <__x86.get_pc_thunk.bx>
 80487a9:	81 c3 57 18 00 00    	add    $0x1857,%ebx
 80487af:	83 ec 0c             	sub    $0xc,%esp
 80487b2:	8b 6c 24 20          	mov    0x20(%esp),%ebp
 80487b6:	8d b3 0c ff ff ff    	lea    -0xf4(%ebx),%esi
 80487bc:	e8 ef fb ff ff       	call   80483b0 <_init>
 80487c1:	8d 83 08 ff ff ff    	lea    -0xf8(%ebx),%eax
 80487c7:	29 c6                	sub    %eax,%esi
 80487c9:	c1 fe 02             	sar    $0x2,%esi
 80487cc:	85 f6                	test   %esi,%esi
 80487ce:	74 25                	je     80487f5 <__libc_csu_init+0x55>
 80487d0:	31 ff                	xor    %edi,%edi
 80487d2:	8d b6 00 00 00 00    	lea    0x0(%esi),%esi
 80487d8:	83 ec 04             	sub    $0x4,%esp
 80487db:	ff 74 24 2c          	pushl  0x2c(%esp)
 80487df:	ff 74 24 2c          	pushl  0x2c(%esp)
 80487e3:	55                   	push   %ebp
 80487e4:	ff 94 bb 08 ff ff ff 	call   *-0xf8(%ebx,%edi,4)
 80487eb:	83 c7 01             	add    $0x1,%edi
 80487ee:	83 c4 10             	add    $0x10,%esp
 80487f1:	39 f7                	cmp    %esi,%edi
 80487f3:	75 e3                	jne    80487d8 <__libc_csu_init+0x38>
 80487f5:	83 c4 0c             	add    $0xc,%esp
 80487f8:	5b                   	pop    %ebx
 80487f9:	5e                   	pop    %esi
 80487fa:	5f                   	pop    %edi
 80487fb:	5d                   	pop    %ebp
 80487fc:	c3                   	ret    
 80487fd:	8d 76 00             	lea    0x0(%esi),%esi

08048800 <__libc_csu_fini>:
 8048800:	f3 c3                	repz ret 

Disassembly of section .fini:

08048804 <_fini>:
 8048804:	53                   	push   %ebx
 8048805:	83 ec 08             	sub    $0x8,%esp
 8048808:	e8 b3 fc ff ff       	call   80484c0 <__x86.get_pc_thunk.bx>
 804880d:	81 c3 f3 17 00 00    	add    $0x17f3,%ebx
 8048813:	83 c4 08             	add    $0x8,%esp
 8048816:	5b                   	pop    %ebx
 8048817:	c3                   	ret    
