
07_angr_symbolic_file:     file format elf32-i386


Disassembly of section .init:

080484bc <_init>:
 80484bc:	53                   	push   %ebx
 80484bd:	83 ec 08             	sub    $0x8,%esp
 80484c0:	e8 5b 01 00 00       	call   8048620 <__x86.get_pc_thunk.bx>
 80484c5:	81 c3 3b 1b 00 00    	add    $0x1b3b,%ebx
 80484cb:	8b 83 fc ff ff ff    	mov    -0x4(%ebx),%eax
 80484d1:	85 c0                	test   %eax,%eax
 80484d3:	74 05                	je     80484da <_init+0x1e>
 80484d5:	e8 06 01 00 00       	call   80485e0 <__gmon_start__@plt>
 80484da:	83 c4 08             	add    $0x8,%esp
 80484dd:	5b                   	pop    %ebx
 80484de:	c3                   	ret    

Disassembly of section .plt:

080484e0 <.plt>:
 80484e0:	ff 35 04 a0 04 08    	pushl  0x804a004
 80484e6:	ff 25 08 a0 04 08    	jmp    *0x804a008
 80484ec:	00 00                	add    %al,(%eax)
	...

080484f0 <printf@plt>:
 80484f0:	ff 25 0c a0 04 08    	jmp    *0x804a00c
 80484f6:	68 00 00 00 00       	push   $0x0
 80484fb:	e9 e0 ff ff ff       	jmp    80484e0 <.plt>

08048500 <__isoc99_fscanf@plt>:
 8048500:	ff 25 10 a0 04 08    	jmp    *0x804a010
 8048506:	68 08 00 00 00       	push   $0x8
 804850b:	e9 d0 ff ff ff       	jmp    80484e0 <.plt>

08048510 <fclose@plt>:
 8048510:	ff 25 14 a0 04 08    	jmp    *0x804a014
 8048516:	68 10 00 00 00       	push   $0x10
 804851b:	e9 c0 ff ff ff       	jmp    80484e0 <.plt>

08048520 <__stack_chk_fail@plt>:
 8048520:	ff 25 18 a0 04 08    	jmp    *0x804a018
 8048526:	68 18 00 00 00       	push   $0x18
 804852b:	e9 b0 ff ff ff       	jmp    80484e0 <.plt>

08048530 <unlink@plt>:
 8048530:	ff 25 1c a0 04 08    	jmp    *0x804a01c
 8048536:	68 20 00 00 00       	push   $0x20
 804853b:	e9 a0 ff ff ff       	jmp    80484e0 <.plt>

08048540 <fseek@plt>:
 8048540:	ff 25 20 a0 04 08    	jmp    *0x804a020
 8048546:	68 28 00 00 00       	push   $0x28
 804854b:	e9 90 ff ff ff       	jmp    80484e0 <.plt>

08048550 <fwrite@plt>:
 8048550:	ff 25 24 a0 04 08    	jmp    *0x804a024
 8048556:	68 30 00 00 00       	push   $0x30
 804855b:	e9 80 ff ff ff       	jmp    80484e0 <.plt>

08048560 <fread@plt>:
 8048560:	ff 25 28 a0 04 08    	jmp    *0x804a028
 8048566:	68 38 00 00 00       	push   $0x38
 804856b:	e9 70 ff ff ff       	jmp    80484e0 <.plt>

08048570 <puts@plt>:
 8048570:	ff 25 2c a0 04 08    	jmp    *0x804a02c
 8048576:	68 40 00 00 00       	push   $0x40
 804857b:	e9 60 ff ff ff       	jmp    80484e0 <.plt>

08048580 <exit@plt>:
 8048580:	ff 25 30 a0 04 08    	jmp    *0x804a030
 8048586:	68 48 00 00 00       	push   $0x48
 804858b:	e9 50 ff ff ff       	jmp    80484e0 <.plt>

08048590 <__libc_start_main@plt>:
 8048590:	ff 25 34 a0 04 08    	jmp    *0x804a034
 8048596:	68 50 00 00 00       	push   $0x50
 804859b:	e9 40 ff ff ff       	jmp    80484e0 <.plt>

080485a0 <fopen@plt>:
 80485a0:	ff 25 38 a0 04 08    	jmp    *0x804a038
 80485a6:	68 58 00 00 00       	push   $0x58
 80485ab:	e9 30 ff ff ff       	jmp    80484e0 <.plt>

080485b0 <memset@plt>:
 80485b0:	ff 25 3c a0 04 08    	jmp    *0x804a03c
 80485b6:	68 60 00 00 00       	push   $0x60
 80485bb:	e9 20 ff ff ff       	jmp    80484e0 <.plt>

080485c0 <__isoc99_scanf@plt>:
 80485c0:	ff 25 40 a0 04 08    	jmp    *0x804a040
 80485c6:	68 68 00 00 00       	push   $0x68
 80485cb:	e9 10 ff ff ff       	jmp    80484e0 <.plt>

080485d0 <strncmp@plt>:
 80485d0:	ff 25 44 a0 04 08    	jmp    *0x804a044
 80485d6:	68 70 00 00 00       	push   $0x70
 80485db:	e9 00 ff ff ff       	jmp    80484e0 <.plt>

Disassembly of section .plt.got:

080485e0 <__gmon_start__@plt>:
 80485e0:	ff 25 fc 9f 04 08    	jmp    *0x8049ffc
 80485e6:	66 90                	xchg   %ax,%ax

Disassembly of section .text:

080485f0 <_start>:
 80485f0:	31 ed                	xor    %ebp,%ebp
 80485f2:	5e                   	pop    %esi
 80485f3:	89 e1                	mov    %esp,%ecx
 80485f5:	83 e4 f0             	and    $0xfffffff0,%esp
 80485f8:	50                   	push   %eax
 80485f9:	54                   	push   %esp
 80485fa:	52                   	push   %edx
 80485fb:	68 30 8a 04 08       	push   $0x8048a30
 8048600:	68 d0 89 04 08       	push   $0x80489d0
 8048605:	51                   	push   %ecx
 8048606:	56                   	push   %esi
 8048607:	68 7a 88 04 08       	push   $0x804887a
 804860c:	e8 7f ff ff ff       	call   8048590 <__libc_start_main@plt>
 8048611:	f4                   	hlt    
 8048612:	66 90                	xchg   %ax,%ax
 8048614:	66 90                	xchg   %ax,%ax
 8048616:	66 90                	xchg   %ax,%ax
 8048618:	66 90                	xchg   %ax,%ax
 804861a:	66 90                	xchg   %ax,%ax
 804861c:	66 90                	xchg   %ax,%ax
 804861e:	66 90                	xchg   %ax,%ax

08048620 <__x86.get_pc_thunk.bx>:
 8048620:	8b 1c 24             	mov    (%esp),%ebx
 8048623:	c3                   	ret    
 8048624:	66 90                	xchg   %ax,%ax
 8048626:	66 90                	xchg   %ax,%ax
 8048628:	66 90                	xchg   %ax,%ax
 804862a:	66 90                	xchg   %ax,%ax
 804862c:	66 90                	xchg   %ax,%ax
 804862e:	66 90                	xchg   %ax,%ax

08048630 <deregister_tm_clones>:
 8048630:	b8 63 a0 04 08       	mov    $0x804a063,%eax
 8048635:	2d 60 a0 04 08       	sub    $0x804a060,%eax
 804863a:	83 f8 06             	cmp    $0x6,%eax
 804863d:	76 1a                	jbe    8048659 <deregister_tm_clones+0x29>
 804863f:	b8 00 00 00 00       	mov    $0x0,%eax
 8048644:	85 c0                	test   %eax,%eax
 8048646:	74 11                	je     8048659 <deregister_tm_clones+0x29>
 8048648:	55                   	push   %ebp
 8048649:	89 e5                	mov    %esp,%ebp
 804864b:	83 ec 14             	sub    $0x14,%esp
 804864e:	68 60 a0 04 08       	push   $0x804a060
 8048653:	ff d0                	call   *%eax
 8048655:	83 c4 10             	add    $0x10,%esp
 8048658:	c9                   	leave  
 8048659:	f3 c3                	repz ret 
 804865b:	90                   	nop
 804865c:	8d 74 26 00          	lea    0x0(%esi,%eiz,1),%esi

08048660 <register_tm_clones>:
 8048660:	b8 60 a0 04 08       	mov    $0x804a060,%eax
 8048665:	2d 60 a0 04 08       	sub    $0x804a060,%eax
 804866a:	c1 f8 02             	sar    $0x2,%eax
 804866d:	89 c2                	mov    %eax,%edx
 804866f:	c1 ea 1f             	shr    $0x1f,%edx
 8048672:	01 d0                	add    %edx,%eax
 8048674:	d1 f8                	sar    %eax
 8048676:	74 1b                	je     8048693 <register_tm_clones+0x33>
 8048678:	ba 00 00 00 00       	mov    $0x0,%edx
 804867d:	85 d2                	test   %edx,%edx
 804867f:	74 12                	je     8048693 <register_tm_clones+0x33>
 8048681:	55                   	push   %ebp
 8048682:	89 e5                	mov    %esp,%ebp
 8048684:	83 ec 10             	sub    $0x10,%esp
 8048687:	50                   	push   %eax
 8048688:	68 60 a0 04 08       	push   $0x804a060
 804868d:	ff d2                	call   *%edx
 804868f:	83 c4 10             	add    $0x10,%esp
 8048692:	c9                   	leave  
 8048693:	f3 c3                	repz ret 
 8048695:	8d 74 26 00          	lea    0x0(%esi,%eiz,1),%esi
 8048699:	8d bc 27 00 00 00 00 	lea    0x0(%edi,%eiz,1),%edi

080486a0 <__do_global_dtors_aux>:
 80486a0:	80 3d 60 a0 04 08 00 	cmpb   $0x0,0x804a060
 80486a7:	75 13                	jne    80486bc <__do_global_dtors_aux+0x1c>
 80486a9:	55                   	push   %ebp
 80486aa:	89 e5                	mov    %esp,%ebp
 80486ac:	83 ec 08             	sub    $0x8,%esp
 80486af:	e8 7c ff ff ff       	call   8048630 <deregister_tm_clones>
 80486b4:	c6 05 60 a0 04 08 01 	movb   $0x1,0x804a060
 80486bb:	c9                   	leave  
 80486bc:	f3 c3                	repz ret 
 80486be:	66 90                	xchg   %ax,%ax

080486c0 <frame_dummy>:
 80486c0:	b8 10 9f 04 08       	mov    $0x8049f10,%eax
 80486c5:	8b 10                	mov    (%eax),%edx
 80486c7:	85 d2                	test   %edx,%edx
 80486c9:	75 05                	jne    80486d0 <frame_dummy+0x10>
 80486cb:	eb 93                	jmp    8048660 <register_tm_clones>
 80486cd:	8d 76 00             	lea    0x0(%esi),%esi
 80486d0:	ba 00 00 00 00       	mov    $0x0,%edx
 80486d5:	85 d2                	test   %edx,%edx
 80486d7:	74 f2                	je     80486cb <frame_dummy+0xb>
 80486d9:	55                   	push   %ebp
 80486da:	89 e5                	mov    %esp,%ebp
 80486dc:	83 ec 14             	sub    $0x14,%esp
 80486df:	50                   	push   %eax
 80486e0:	ff d2                	call   *%edx
 80486e2:	83 c4 10             	add    $0x10,%esp
 80486e5:	c9                   	leave  
 80486e6:	e9 75 ff ff ff       	jmp    8048660 <register_tm_clones>

080486eb <print_msg>:
 80486eb:	55                   	push   %ebp
 80486ec:	89 e5                	mov    %esp,%ebp
 80486ee:	83 ec 08             	sub    $0x8,%esp
 80486f1:	83 ec 08             	sub    $0x8,%esp
 80486f4:	68 50 a0 04 08       	push   $0x804a050
 80486f9:	68 50 8a 04 08       	push   $0x8048a50
 80486fe:	e8 ed fd ff ff       	call   80484f0 <printf@plt>
 8048703:	83 c4 10             	add    $0x10,%esp
 8048706:	90                   	nop
 8048707:	c9                   	leave  
 8048708:	c3                   	ret    

08048709 <complex_function>:
 8048709:	55                   	push   %ebp
 804870a:	89 e5                	mov    %esp,%ebp
 804870c:	83 ec 08             	sub    $0x8,%esp
 804870f:	83 7d 08 40          	cmpl   $0x40,0x8(%ebp)
 8048713:	7e 06                	jle    804871b <complex_function+0x12>
 8048715:	83 7d 08 5a          	cmpl   $0x5a,0x8(%ebp)
 8048719:	7e 1a                	jle    8048735 <complex_function+0x2c>
 804871b:	83 ec 0c             	sub    $0xc,%esp
 804871e:	68 53 8a 04 08       	push   $0x8048a53
 8048723:	e8 48 fe ff ff       	call   8048570 <puts@plt>
 8048728:	83 c4 10             	add    $0x10,%esp
 804872b:	83 ec 0c             	sub    $0xc,%esp
 804872e:	6a 01                	push   $0x1
 8048730:	e8 4b fe ff ff       	call   8048580 <exit@plt>
 8048735:	8b 45 08             	mov    0x8(%ebp),%eax
 8048738:	8d 48 bf             	lea    -0x41(%eax),%ecx
 804873b:	8b 55 0c             	mov    0xc(%ebp),%edx
 804873e:	89 d0                	mov    %edx,%eax
 8048740:	c1 e0 04             	shl    $0x4,%eax
 8048743:	01 d0                	add    %edx,%eax
 8048745:	01 c1                	add    %eax,%ecx
 8048747:	ba 4f ec c4 4e       	mov    $0x4ec4ec4f,%edx
 804874c:	89 c8                	mov    %ecx,%eax
 804874e:	f7 ea                	imul   %edx
 8048750:	c1 fa 03             	sar    $0x3,%edx
 8048753:	89 c8                	mov    %ecx,%eax
 8048755:	c1 f8 1f             	sar    $0x1f,%eax
 8048758:	29 c2                	sub    %eax,%edx
 804875a:	89 d0                	mov    %edx,%eax
 804875c:	6b c0 1a             	imul   $0x1a,%eax,%eax
 804875f:	29 c1                	sub    %eax,%ecx
 8048761:	89 c8                	mov    %ecx,%eax
 8048763:	83 c0 41             	add    $0x41,%eax
 8048766:	c9                   	leave  
 8048767:	c3                   	ret    

08048768 <ignore_me>:
 8048768:	55                   	push   %ebp
 8048769:	89 e5                	mov    %esp,%ebp
 804876b:	53                   	push   %ebx
 804876c:	83 ec 24             	sub    $0x24,%esp
 804876f:	8b 45 08             	mov    0x8(%ebp),%eax
 8048772:	89 45 e4             	mov    %eax,-0x1c(%ebp)
 8048775:	65 a1 14 00 00 00    	mov    %gs:0x14,%eax
 804877b:	89 45 f4             	mov    %eax,-0xc(%ebp)
 804877e:	31 c0                	xor    %eax,%eax
 8048780:	89 e0                	mov    %esp,%eax
 8048782:	89 c3                	mov    %eax,%ebx
 8048784:	8b 45 0c             	mov    0xc(%ebp),%eax
 8048787:	8d 50 ff             	lea    -0x1(%eax),%edx
 804878a:	89 55 e8             	mov    %edx,-0x18(%ebp)
 804878d:	89 c2                	mov    %eax,%edx
 804878f:	b8 10 00 00 00       	mov    $0x10,%eax
 8048794:	83 e8 01             	sub    $0x1,%eax
 8048797:	01 d0                	add    %edx,%eax
 8048799:	b9 10 00 00 00       	mov    $0x10,%ecx
 804879e:	ba 00 00 00 00       	mov    $0x0,%edx
 80487a3:	f7 f1                	div    %ecx
 80487a5:	6b c0 10             	imul   $0x10,%eax,%eax
 80487a8:	29 c4                	sub    %eax,%esp
 80487aa:	89 e0                	mov    %esp,%eax
 80487ac:	83 c0 00             	add    $0x0,%eax
 80487af:	89 45 ec             	mov    %eax,-0x14(%ebp)
 80487b2:	8b 55 0c             	mov    0xc(%ebp),%edx
 80487b5:	8b 45 ec             	mov    -0x14(%ebp),%eax
 80487b8:	83 ec 04             	sub    $0x4,%esp
 80487bb:	52                   	push   %edx
 80487bc:	6a 00                	push   $0x0
 80487be:	50                   	push   %eax
 80487bf:	e8 ec fd ff ff       	call   80485b0 <memset@plt>
 80487c4:	83 c4 10             	add    $0x10,%esp
 80487c7:	83 ec 0c             	sub    $0xc,%esp
 80487ca:	68 5e 8a 04 08       	push   $0x8048a5e
 80487cf:	e8 5c fd ff ff       	call   8048530 <unlink@plt>
 80487d4:	83 c4 10             	add    $0x10,%esp
 80487d7:	83 ec 08             	sub    $0x8,%esp
 80487da:	68 6b 8a 04 08       	push   $0x8048a6b
 80487df:	68 5e 8a 04 08       	push   $0x8048a5e
 80487e4:	e8 b7 fd ff ff       	call   80485a0 <fopen@plt>
 80487e9:	83 c4 10             	add    $0x10,%esp
 80487ec:	89 45 f0             	mov    %eax,-0x10(%ebp)
 80487ef:	8b 45 0c             	mov    0xc(%ebp),%eax
 80487f2:	ff 75 f0             	pushl  -0x10(%ebp)
 80487f5:	50                   	push   %eax
 80487f6:	6a 01                	push   $0x1
 80487f8:	ff 75 e4             	pushl  -0x1c(%ebp)
 80487fb:	e8 50 fd ff ff       	call   8048550 <fwrite@plt>
 8048800:	83 c4 10             	add    $0x10,%esp
 8048803:	83 ec 04             	sub    $0x4,%esp
 8048806:	6a 00                	push   $0x0
 8048808:	6a 00                	push   $0x0
 804880a:	ff 75 f0             	pushl  -0x10(%ebp)
 804880d:	e8 2e fd ff ff       	call   8048540 <fseek@plt>
 8048812:	83 c4 10             	add    $0x10,%esp
 8048815:	8b 45 ec             	mov    -0x14(%ebp),%eax
 8048818:	83 ec 04             	sub    $0x4,%esp
 804881b:	50                   	push   %eax
 804881c:	68 6f 8a 04 08       	push   $0x8048a6f
 8048821:	ff 75 f0             	pushl  -0x10(%ebp)
 8048824:	e8 d7 fc ff ff       	call   8048500 <__isoc99_fscanf@plt>
 8048829:	83 c4 10             	add    $0x10,%esp
 804882c:	83 ec 04             	sub    $0x4,%esp
 804882f:	6a 00                	push   $0x0
 8048831:	6a 00                	push   $0x0
 8048833:	ff 75 f0             	pushl  -0x10(%ebp)
 8048836:	e8 05 fd ff ff       	call   8048540 <fseek@plt>
 804883b:	83 c4 10             	add    $0x10,%esp
 804883e:	8b 55 0c             	mov    0xc(%ebp),%edx
 8048841:	8b 45 ec             	mov    -0x14(%ebp),%eax
 8048844:	ff 75 f0             	pushl  -0x10(%ebp)
 8048847:	52                   	push   %edx
 8048848:	6a 01                	push   $0x1
 804884a:	50                   	push   %eax
 804884b:	e8 00 fd ff ff       	call   8048550 <fwrite@plt>
 8048850:	83 c4 10             	add    $0x10,%esp
 8048853:	83 ec 0c             	sub    $0xc,%esp
 8048856:	ff 75 f0             	pushl  -0x10(%ebp)
 8048859:	e8 b2 fc ff ff       	call   8048510 <fclose@plt>
 804885e:	83 c4 10             	add    $0x10,%esp
 8048861:	89 dc                	mov    %ebx,%esp
 8048863:	90                   	nop
 8048864:	8b 45 f4             	mov    -0xc(%ebp),%eax
 8048867:	65 33 05 14 00 00 00 	xor    %gs:0x14,%eax
 804886e:	74 05                	je     8048875 <ignore_me+0x10d>
 8048870:	e8 ab fc ff ff       	call   8048520 <__stack_chk_fail@plt>
 8048875:	8b 5d fc             	mov    -0x4(%ebp),%ebx
 8048878:	c9                   	leave  
 8048879:	c3                   	ret    

0804887a <main>:
 804887a:	8d 4c 24 04          	lea    0x4(%esp),%ecx
 804887e:	83 e4 f0             	and    $0xfffffff0,%esp
 8048881:	ff 71 fc             	pushl  -0x4(%ecx)
 8048884:	55                   	push   %ebp
 8048885:	89 e5                	mov    %esp,%ebp
 8048887:	51                   	push   %ecx
 8048888:	83 ec 14             	sub    $0x14,%esp
 804888b:	83 ec 04             	sub    $0x4,%esp
 804888e:	6a 40                	push   $0x40
 8048890:	6a 00                	push   $0x0
 8048892:	68 a0 a0 04 08       	push   $0x804a0a0
 8048897:	e8 14 fd ff ff       	call   80485b0 <memset@plt>
 804889c:	83 c4 10             	add    $0x10,%esp
 804889f:	83 ec 0c             	sub    $0xc,%esp
 80488a2:	68 74 8a 04 08       	push   $0x8048a74
 80488a7:	e8 44 fc ff ff       	call   80484f0 <printf@plt>
 80488ac:	83 c4 10             	add    $0x10,%esp
 80488af:	83 ec 08             	sub    $0x8,%esp
 80488b2:	68 a0 a0 04 08       	push   $0x804a0a0
 80488b7:	68 6f 8a 04 08       	push   $0x8048a6f
 80488bc:	e8 ff fc ff ff       	call   80485c0 <__isoc99_scanf@plt>
 80488c1:	83 c4 10             	add    $0x10,%esp
 80488c4:	83 ec 08             	sub    $0x8,%esp
 80488c7:	6a 40                	push   $0x40
 80488c9:	68 a0 a0 04 08       	push   $0x804a0a0
 80488ce:	e8 95 fe ff ff       	call   8048768 <ignore_me>
 80488d3:	83 c4 10             	add    $0x10,%esp
 80488d6:	83 ec 04             	sub    $0x4,%esp
 80488d9:	6a 40                	push   $0x40
 80488db:	6a 00                	push   $0x0
 80488dd:	68 a0 a0 04 08       	push   $0x804a0a0
 80488e2:	e8 c9 fc ff ff       	call   80485b0 <memset@plt>
 80488e7:	83 c4 10             	add    $0x10,%esp
 80488ea:	83 ec 08             	sub    $0x8,%esp
 80488ed:	68 89 8a 04 08       	push   $0x8048a89
 80488f2:	68 5e 8a 04 08       	push   $0x8048a5e
 80488f7:	e8 a4 fc ff ff       	call   80485a0 <fopen@plt>
 80488fc:	83 c4 10             	add    $0x10,%esp
 80488ff:	a3 80 a0 04 08       	mov    %eax,0x804a080
 8048904:	a1 80 a0 04 08       	mov    0x804a080,%eax
 8048909:	50                   	push   %eax
 804890a:	6a 40                	push   $0x40
 804890c:	6a 01                	push   $0x1
 804890e:	68 a0 a0 04 08       	push   $0x804a0a0
 8048913:	e8 48 fc ff ff       	call   8048560 <fread@plt>
 8048918:	83 c4 10             	add    $0x10,%esp
 804891b:	a1 80 a0 04 08       	mov    0x804a080,%eax
 8048920:	83 ec 0c             	sub    $0xc,%esp
 8048923:	50                   	push   %eax
 8048924:	e8 e7 fb ff ff       	call   8048510 <fclose@plt>
 8048929:	83 c4 10             	add    $0x10,%esp
 804892c:	83 ec 0c             	sub    $0xc,%esp
 804892f:	68 5e 8a 04 08       	push   $0x8048a5e
 8048934:	e8 f7 fb ff ff       	call   8048530 <unlink@plt>
 8048939:	83 c4 10             	add    $0x10,%esp
 804893c:	c7 45 f4 00 00 00 00 	movl   $0x0,-0xc(%ebp)
 8048943:	eb 2d                	jmp    8048972 <main+0xf8>
 8048945:	8b 45 f4             	mov    -0xc(%ebp),%eax
 8048948:	05 a0 a0 04 08       	add    $0x804a0a0,%eax
 804894d:	0f b6 00             	movzbl (%eax),%eax
 8048950:	0f be c0             	movsbl %al,%eax
 8048953:	83 ec 08             	sub    $0x8,%esp
 8048956:	ff 75 f4             	pushl  -0xc(%ebp)
 8048959:	50                   	push   %eax
 804895a:	e8 aa fd ff ff       	call   8048709 <complex_function>
 804895f:	83 c4 10             	add    $0x10,%esp
 8048962:	89 c2                	mov    %eax,%edx
 8048964:	8b 45 f4             	mov    -0xc(%ebp),%eax
 8048967:	05 a0 a0 04 08       	add    $0x804a0a0,%eax
 804896c:	88 10                	mov    %dl,(%eax)
 804896e:	83 45 f4 01          	addl   $0x1,-0xc(%ebp)
 8048972:	83 7d f4 07          	cmpl   $0x7,-0xc(%ebp)
 8048976:	7e cd                	jle    8048945 <main+0xcb>
 8048978:	83 ec 04             	sub    $0x4,%esp
 804897b:	6a 09                	push   $0x9
 804897d:	68 8c 8a 04 08       	push   $0x8048a8c
 8048982:	68 a0 a0 04 08       	push   $0x804a0a0
 8048987:	e8 44 fc ff ff       	call   80485d0 <strncmp@plt>
 804898c:	83 c4 10             	add    $0x10,%esp
 804898f:	85 c0                	test   %eax,%eax
 8048991:	74 1a                	je     80489ad <main+0x133>
 8048993:	83 ec 0c             	sub    $0xc,%esp
 8048996:	68 53 8a 04 08       	push   $0x8048a53
 804899b:	e8 d0 fb ff ff       	call   8048570 <puts@plt>
 80489a0:	83 c4 10             	add    $0x10,%esp
 80489a3:	83 ec 0c             	sub    $0xc,%esp
 80489a6:	6a 01                	push   $0x1
 80489a8:	e8 d3 fb ff ff       	call   8048580 <exit@plt>
 80489ad:	83 ec 0c             	sub    $0xc,%esp
 80489b0:	68 95 8a 04 08       	push   $0x8048a95
 80489b5:	e8 b6 fb ff ff       	call   8048570 <puts@plt>
 80489ba:	83 c4 10             	add    $0x10,%esp
 80489bd:	83 ec 0c             	sub    $0xc,%esp
 80489c0:	6a 00                	push   $0x0
 80489c2:	e8 b9 fb ff ff       	call   8048580 <exit@plt>
 80489c7:	66 90                	xchg   %ax,%ax
 80489c9:	66 90                	xchg   %ax,%ax
 80489cb:	66 90                	xchg   %ax,%ax
 80489cd:	66 90                	xchg   %ax,%ax
 80489cf:	90                   	nop

080489d0 <__libc_csu_init>:
 80489d0:	55                   	push   %ebp
 80489d1:	57                   	push   %edi
 80489d2:	56                   	push   %esi
 80489d3:	53                   	push   %ebx
 80489d4:	e8 47 fc ff ff       	call   8048620 <__x86.get_pc_thunk.bx>
 80489d9:	81 c3 27 16 00 00    	add    $0x1627,%ebx
 80489df:	83 ec 0c             	sub    $0xc,%esp
 80489e2:	8b 6c 24 20          	mov    0x20(%esp),%ebp
 80489e6:	8d b3 0c ff ff ff    	lea    -0xf4(%ebx),%esi
 80489ec:	e8 cb fa ff ff       	call   80484bc <_init>
 80489f1:	8d 83 08 ff ff ff    	lea    -0xf8(%ebx),%eax
 80489f7:	29 c6                	sub    %eax,%esi
 80489f9:	c1 fe 02             	sar    $0x2,%esi
 80489fc:	85 f6                	test   %esi,%esi
 80489fe:	74 25                	je     8048a25 <__libc_csu_init+0x55>
 8048a00:	31 ff                	xor    %edi,%edi
 8048a02:	8d b6 00 00 00 00    	lea    0x0(%esi),%esi
 8048a08:	83 ec 04             	sub    $0x4,%esp
 8048a0b:	ff 74 24 2c          	pushl  0x2c(%esp)
 8048a0f:	ff 74 24 2c          	pushl  0x2c(%esp)
 8048a13:	55                   	push   %ebp
 8048a14:	ff 94 bb 08 ff ff ff 	call   *-0xf8(%ebx,%edi,4)
 8048a1b:	83 c7 01             	add    $0x1,%edi
 8048a1e:	83 c4 10             	add    $0x10,%esp
 8048a21:	39 f7                	cmp    %esi,%edi
 8048a23:	75 e3                	jne    8048a08 <__libc_csu_init+0x38>
 8048a25:	83 c4 0c             	add    $0xc,%esp
 8048a28:	5b                   	pop    %ebx
 8048a29:	5e                   	pop    %esi
 8048a2a:	5f                   	pop    %edi
 8048a2b:	5d                   	pop    %ebp
 8048a2c:	c3                   	ret    
 8048a2d:	8d 76 00             	lea    0x0(%esi),%esi

08048a30 <__libc_csu_fini>:
 8048a30:	f3 c3                	repz ret 

Disassembly of section .fini:

08048a34 <_fini>:
 8048a34:	53                   	push   %ebx
 8048a35:	83 ec 08             	sub    $0x8,%esp
 8048a38:	e8 e3 fb ff ff       	call   8048620 <__x86.get_pc_thunk.bx>
 8048a3d:	81 c3 c3 15 00 00    	add    $0x15c3,%ebx
 8048a43:	83 c4 08             	add    $0x8,%esp
 8048a46:	5b                   	pop    %ebx
 8048a47:	c3                   	ret    
