
08_angr_constraints:     file format elf32-i386


Disassembly of section .init:

0804834c <_init>:
 804834c:	53                   	push   %ebx
 804834d:	83 ec 08             	sub    $0x8,%esp
 8048350:	e8 cb 00 00 00       	call   8048420 <__x86.get_pc_thunk.bx>
 8048355:	81 c3 ab 1c 00 00    	add    $0x1cab,%ebx
 804835b:	8b 83 fc ff ff ff    	mov    -0x4(%ebx),%eax
 8048361:	85 c0                	test   %eax,%eax
 8048363:	74 05                	je     804836a <_init+0x1e>
 8048365:	e8 76 00 00 00       	call   80483e0 <__gmon_start__@plt>
 804836a:	83 c4 08             	add    $0x8,%esp
 804836d:	5b                   	pop    %ebx
 804836e:	c3                   	ret    

Disassembly of section .plt:

08048370 <.plt>:
 8048370:	ff 35 04 a0 04 08    	pushl  0x804a004
 8048376:	ff 25 08 a0 04 08    	jmp    *0x804a008
 804837c:	00 00                	add    %al,(%eax)
	...

08048380 <printf@plt>:
 8048380:	ff 25 0c a0 04 08    	jmp    *0x804a00c
 8048386:	68 00 00 00 00       	push   $0x0
 804838b:	e9 e0 ff ff ff       	jmp    8048370 <.plt>

08048390 <puts@plt>:
 8048390:	ff 25 10 a0 04 08    	jmp    *0x804a010
 8048396:	68 08 00 00 00       	push   $0x8
 804839b:	e9 d0 ff ff ff       	jmp    8048370 <.plt>

080483a0 <exit@plt>:
 80483a0:	ff 25 14 a0 04 08    	jmp    *0x804a014
 80483a6:	68 10 00 00 00       	push   $0x10
 80483ab:	e9 c0 ff ff ff       	jmp    8048370 <.plt>

080483b0 <__libc_start_main@plt>:
 80483b0:	ff 25 18 a0 04 08    	jmp    *0x804a018
 80483b6:	68 18 00 00 00       	push   $0x18
 80483bb:	e9 b0 ff ff ff       	jmp    8048370 <.plt>

080483c0 <memset@plt>:
 80483c0:	ff 25 1c a0 04 08    	jmp    *0x804a01c
 80483c6:	68 20 00 00 00       	push   $0x20
 80483cb:	e9 a0 ff ff ff       	jmp    8048370 <.plt>

080483d0 <__isoc99_scanf@plt>:
 80483d0:	ff 25 20 a0 04 08    	jmp    *0x804a020
 80483d6:	68 28 00 00 00       	push   $0x28
 80483db:	e9 90 ff ff ff       	jmp    8048370 <.plt>

Disassembly of section .plt.got:

080483e0 <__gmon_start__@plt>:
 80483e0:	ff 25 fc 9f 04 08    	jmp    *0x8049ffc
 80483e6:	66 90                	xchg   %ax,%ax

Disassembly of section .text:

080483f0 <_start>:
 80483f0:	31 ed                	xor    %ebp,%ebp
 80483f2:	5e                   	pop    %esi
 80483f3:	89 e1                	mov    %esp,%ecx
 80483f5:	83 e4 f0             	and    $0xfffffff0,%esp
 80483f8:	50                   	push   %eax
 80483f9:	54                   	push   %esp
 80483fa:	52                   	push   %edx
 80483fb:	68 10 87 04 08       	push   $0x8048710
 8048400:	68 b0 86 04 08       	push   $0x80486b0
 8048405:	51                   	push   %ecx
 8048406:	56                   	push   %esi
 8048407:	68 b3 85 04 08       	push   $0x80485b3
 804840c:	e8 9f ff ff ff       	call   80483b0 <__libc_start_main@plt>
 8048411:	f4                   	hlt    
 8048412:	66 90                	xchg   %ax,%ax
 8048414:	66 90                	xchg   %ax,%ax
 8048416:	66 90                	xchg   %ax,%ax
 8048418:	66 90                	xchg   %ax,%ax
 804841a:	66 90                	xchg   %ax,%ax
 804841c:	66 90                	xchg   %ax,%ax
 804841e:	66 90                	xchg   %ax,%ax

08048420 <__x86.get_pc_thunk.bx>:
 8048420:	8b 1c 24             	mov    (%esp),%ebx
 8048423:	c3                   	ret    
 8048424:	66 90                	xchg   %ax,%ax
 8048426:	66 90                	xchg   %ax,%ax
 8048428:	66 90                	xchg   %ax,%ax
 804842a:	66 90                	xchg   %ax,%ax
 804842c:	66 90                	xchg   %ax,%ax
 804842e:	66 90                	xchg   %ax,%ax

08048430 <deregister_tm_clones>:
 8048430:	b8 3f a0 04 08       	mov    $0x804a03f,%eax
 8048435:	2d 3c a0 04 08       	sub    $0x804a03c,%eax
 804843a:	83 f8 06             	cmp    $0x6,%eax
 804843d:	76 1a                	jbe    8048459 <deregister_tm_clones+0x29>
 804843f:	b8 00 00 00 00       	mov    $0x0,%eax
 8048444:	85 c0                	test   %eax,%eax
 8048446:	74 11                	je     8048459 <deregister_tm_clones+0x29>
 8048448:	55                   	push   %ebp
 8048449:	89 e5                	mov    %esp,%ebp
 804844b:	83 ec 14             	sub    $0x14,%esp
 804844e:	68 3c a0 04 08       	push   $0x804a03c
 8048453:	ff d0                	call   *%eax
 8048455:	83 c4 10             	add    $0x10,%esp
 8048458:	c9                   	leave  
 8048459:	f3 c3                	repz ret 
 804845b:	90                   	nop
 804845c:	8d 74 26 00          	lea    0x0(%esi,%eiz,1),%esi

08048460 <register_tm_clones>:
 8048460:	b8 3c a0 04 08       	mov    $0x804a03c,%eax
 8048465:	2d 3c a0 04 08       	sub    $0x804a03c,%eax
 804846a:	c1 f8 02             	sar    $0x2,%eax
 804846d:	89 c2                	mov    %eax,%edx
 804846f:	c1 ea 1f             	shr    $0x1f,%edx
 8048472:	01 d0                	add    %edx,%eax
 8048474:	d1 f8                	sar    %eax
 8048476:	74 1b                	je     8048493 <register_tm_clones+0x33>
 8048478:	ba 00 00 00 00       	mov    $0x0,%edx
 804847d:	85 d2                	test   %edx,%edx
 804847f:	74 12                	je     8048493 <register_tm_clones+0x33>
 8048481:	55                   	push   %ebp
 8048482:	89 e5                	mov    %esp,%ebp
 8048484:	83 ec 10             	sub    $0x10,%esp
 8048487:	50                   	push   %eax
 8048488:	68 3c a0 04 08       	push   $0x804a03c
 804848d:	ff d2                	call   *%edx
 804848f:	83 c4 10             	add    $0x10,%esp
 8048492:	c9                   	leave  
 8048493:	f3 c3                	repz ret 
 8048495:	8d 74 26 00          	lea    0x0(%esi,%eiz,1),%esi
 8048499:	8d bc 27 00 00 00 00 	lea    0x0(%edi,%eiz,1),%edi

080484a0 <__do_global_dtors_aux>:
 80484a0:	80 3d 3c a0 04 08 00 	cmpb   $0x0,0x804a03c
 80484a7:	75 13                	jne    80484bc <__do_global_dtors_aux+0x1c>
 80484a9:	55                   	push   %ebp
 80484aa:	89 e5                	mov    %esp,%ebp
 80484ac:	83 ec 08             	sub    $0x8,%esp
 80484af:	e8 7c ff ff ff       	call   8048430 <deregister_tm_clones>
 80484b4:	c6 05 3c a0 04 08 01 	movb   $0x1,0x804a03c
 80484bb:	c9                   	leave  
 80484bc:	f3 c3                	repz ret 
 80484be:	66 90                	xchg   %ax,%ax

080484c0 <frame_dummy>:
 80484c0:	b8 10 9f 04 08       	mov    $0x8049f10,%eax
 80484c5:	8b 10                	mov    (%eax),%edx
 80484c7:	85 d2                	test   %edx,%edx
 80484c9:	75 05                	jne    80484d0 <frame_dummy+0x10>
 80484cb:	eb 93                	jmp    8048460 <register_tm_clones>
 80484cd:	8d 76 00             	lea    0x0(%esi),%esi
 80484d0:	ba 00 00 00 00       	mov    $0x0,%edx
 80484d5:	85 d2                	test   %edx,%edx
 80484d7:	74 f2                	je     80484cb <frame_dummy+0xb>
 80484d9:	55                   	push   %ebp
 80484da:	89 e5                	mov    %esp,%ebp
 80484dc:	83 ec 14             	sub    $0x14,%esp
 80484df:	50                   	push   %eax
 80484e0:	ff d2                	call   *%edx
 80484e2:	83 c4 10             	add    $0x10,%esp
 80484e5:	c9                   	leave  
 80484e6:	e9 75 ff ff ff       	jmp    8048460 <register_tm_clones>

080484eb <print_msg>:
 80484eb:	55                   	push   %ebp
 80484ec:	89 e5                	mov    %esp,%ebp
 80484ee:	83 ec 08             	sub    $0x8,%esp
 80484f1:	83 ec 08             	sub    $0x8,%esp
 80484f4:	68 2c a0 04 08       	push   $0x804a02c
 80484f9:	68 30 87 04 08       	push   $0x8048730
 80484fe:	e8 7d fe ff ff       	call   8048380 <printf@plt>
 8048503:	83 c4 10             	add    $0x10,%esp
 8048506:	90                   	nop
 8048507:	c9                   	leave  
 8048508:	c3                   	ret    

08048509 <complex_function>:
 8048509:	55                   	push   %ebp
 804850a:	89 e5                	mov    %esp,%ebp
 804850c:	83 ec 08             	sub    $0x8,%esp
 804850f:	83 7d 08 40          	cmpl   $0x40,0x8(%ebp)
 8048513:	7e 06                	jle    804851b <complex_function+0x12>
 8048515:	83 7d 08 5a          	cmpl   $0x5a,0x8(%ebp)
 8048519:	7e 1a                	jle    8048535 <complex_function+0x2c>
 804851b:	83 ec 0c             	sub    $0xc,%esp
 804851e:	68 33 87 04 08       	push   $0x8048733
 8048523:	e8 68 fe ff ff       	call   8048390 <puts@plt>
 8048528:	83 c4 10             	add    $0x10,%esp
 804852b:	83 ec 0c             	sub    $0xc,%esp
 804852e:	6a 01                	push   $0x1
 8048530:	e8 6b fe ff ff       	call   80483a0 <exit@plt>
 8048535:	8b 45 08             	mov    0x8(%ebp),%eax
 8048538:	8d 50 bf             	lea    -0x41(%eax),%edx
 804853b:	8b 45 0c             	mov    0xc(%ebp),%eax
 804853e:	6b c0 35             	imul   $0x35,%eax,%eax
 8048541:	8d 0c 02             	lea    (%edx,%eax,1),%ecx
 8048544:	ba 4f ec c4 4e       	mov    $0x4ec4ec4f,%edx
 8048549:	89 c8                	mov    %ecx,%eax
 804854b:	f7 ea                	imul   %edx
 804854d:	c1 fa 03             	sar    $0x3,%edx
 8048550:	89 c8                	mov    %ecx,%eax
 8048552:	c1 f8 1f             	sar    $0x1f,%eax
 8048555:	29 c2                	sub    %eax,%edx
 8048557:	89 d0                	mov    %edx,%eax
 8048559:	6b c0 1a             	imul   $0x1a,%eax,%eax
 804855c:	29 c1                	sub    %eax,%ecx
 804855e:	89 c8                	mov    %ecx,%eax
 8048560:	83 c0 41             	add    $0x41,%eax
 8048563:	c9                   	leave  
 8048564:	c3                   	ret    

08048565 <check_equals_AUPDNNPROEZRJWKB>:
 8048565:	55                   	push   %ebp
 8048566:	89 e5                	mov    %esp,%ebp
 8048568:	83 ec 10             	sub    $0x10,%esp
 804856b:	c7 45 f8 00 00 00 00 	movl   $0x0,-0x8(%ebp)
 8048572:	c7 45 fc 00 00 00 00 	movl   $0x0,-0x4(%ebp)
 8048579:	eb 22                	jmp    804859d <check_equals_AUPDNNPROEZRJWKB+0x38>
 804857b:	8b 55 fc             	mov    -0x4(%ebp),%edx
 804857e:	8b 45 08             	mov    0x8(%ebp),%eax
 8048581:	01 d0                	add    %edx,%eax
 8048583:	0f b6 10             	movzbl (%eax),%edx
 8048586:	8b 45 fc             	mov    -0x4(%ebp),%eax
 8048589:	05 40 a0 04 08       	add    $0x804a040,%eax
 804858e:	0f b6 00             	movzbl (%eax),%eax
 8048591:	38 c2                	cmp    %al,%dl
 8048593:	75 04                	jne    8048599 <check_equals_AUPDNNPROEZRJWKB+0x34>
 8048595:	83 45 f8 01          	addl   $0x1,-0x8(%ebp)
 8048599:	83 45 fc 01          	addl   $0x1,-0x4(%ebp)
 804859d:	8b 45 fc             	mov    -0x4(%ebp),%eax
 80485a0:	3b 45 0c             	cmp    0xc(%ebp),%eax
 80485a3:	72 d6                	jb     804857b <check_equals_AUPDNNPROEZRJWKB+0x16>
 80485a5:	8b 45 f8             	mov    -0x8(%ebp),%eax
 80485a8:	3b 45 0c             	cmp    0xc(%ebp),%eax
 80485ab:	0f 94 c0             	sete   %al
 80485ae:	0f b6 c0             	movzbl %al,%eax
 80485b1:	c9                   	leave  
 80485b2:	c3                   	ret    

080485b3 <main>:
 80485b3:	8d 4c 24 04          	lea    0x4(%esp),%ecx
 80485b7:	83 e4 f0             	and    $0xfffffff0,%esp
 80485ba:	ff 71 fc             	pushl  -0x4(%ecx)
 80485bd:	55                   	push   %ebp
 80485be:	89 e5                	mov    %esp,%ebp
 80485c0:	51                   	push   %ecx
 80485c1:	83 ec 14             	sub    $0x14,%esp
 80485c4:	c7 05 40 a0 04 08 41 	movl   $0x44505541,0x804a040
 80485cb:	55 50 44 
 80485ce:	c7 05 44 a0 04 08 4e 	movl   $0x52504e4e,0x804a044
 80485d5:	4e 50 52 
 80485d8:	c7 05 48 a0 04 08 4f 	movl   $0x525a454f,0x804a048
 80485df:	45 5a 52 
 80485e2:	c7 05 4c a0 04 08 4a 	movl   $0x424b574a,0x804a04c
 80485e9:	57 4b 42 
 80485ec:	83 ec 04             	sub    $0x4,%esp
 80485ef:	6a 11                	push   $0x11
 80485f1:	6a 00                	push   $0x0
 80485f3:	68 50 a0 04 08       	push   $0x804a050
 80485f8:	e8 c3 fd ff ff       	call   80483c0 <memset@plt>
 80485fd:	83 c4 10             	add    $0x10,%esp
 8048600:	83 ec 0c             	sub    $0xc,%esp
 8048603:	68 3e 87 04 08       	push   $0x804873e
 8048608:	e8 73 fd ff ff       	call   8048380 <printf@plt>
 804860d:	83 c4 10             	add    $0x10,%esp
 8048610:	83 ec 08             	sub    $0x8,%esp
 8048613:	68 50 a0 04 08       	push   $0x804a050
 8048618:	68 53 87 04 08       	push   $0x8048753
 804861d:	e8 ae fd ff ff       	call   80483d0 <__isoc99_scanf@plt>
 8048622:	83 c4 10             	add    $0x10,%esp
 8048625:	c7 45 f4 00 00 00 00 	movl   $0x0,-0xc(%ebp)
 804862c:	eb 35                	jmp    8048663 <main+0xb0>
 804862e:	b8 0f 00 00 00       	mov    $0xf,%eax
 8048633:	2b 45 f4             	sub    -0xc(%ebp),%eax
 8048636:	89 c2                	mov    %eax,%edx
 8048638:	8b 45 f4             	mov    -0xc(%ebp),%eax
 804863b:	05 50 a0 04 08       	add    $0x804a050,%eax
 8048640:	0f b6 00             	movzbl (%eax),%eax
 8048643:	0f be c0             	movsbl %al,%eax
 8048646:	83 ec 08             	sub    $0x8,%esp
 8048649:	52                   	push   %edx
 804864a:	50                   	push   %eax
 804864b:	e8 b9 fe ff ff       	call   8048509 <complex_function>
 8048650:	83 c4 10             	add    $0x10,%esp
 8048653:	89 c2                	mov    %eax,%edx
 8048655:	8b 45 f4             	mov    -0xc(%ebp),%eax
 8048658:	05 50 a0 04 08       	add    $0x804a050,%eax
 804865d:	88 10                	mov    %dl,(%eax)
 804865f:	83 45 f4 01          	addl   $0x1,-0xc(%ebp)
 8048663:	83 7d f4 0f          	cmpl   $0xf,-0xc(%ebp)
 8048667:	7e c5                	jle    804862e <main+0x7b>
 8048669:	83 ec 08             	sub    $0x8,%esp
 804866c:	6a 10                	push   $0x10
 804866e:	68 50 a0 04 08       	push   $0x804a050
 8048673:	e8 ed fe ff ff       	call   8048565 <check_equals_AUPDNNPROEZRJWKB>
 8048678:	83 c4 10             	add    $0x10,%esp
 804867b:	85 c0                	test   %eax,%eax
 804867d:	75 12                	jne    8048691 <main+0xde>
 804867f:	83 ec 0c             	sub    $0xc,%esp
 8048682:	68 33 87 04 08       	push   $0x8048733
 8048687:	e8 04 fd ff ff       	call   8048390 <puts@plt>
 804868c:	83 c4 10             	add    $0x10,%esp
 804868f:	eb 10                	jmp    80486a1 <main+0xee>
 8048691:	83 ec 0c             	sub    $0xc,%esp
 8048694:	68 58 87 04 08       	push   $0x8048758
 8048699:	e8 f2 fc ff ff       	call   8048390 <puts@plt>
 804869e:	83 c4 10             	add    $0x10,%esp
 80486a1:	b8 00 00 00 00       	mov    $0x0,%eax
 80486a6:	8b 4d fc             	mov    -0x4(%ebp),%ecx
 80486a9:	c9                   	leave  
 80486aa:	8d 61 fc             	lea    -0x4(%ecx),%esp
 80486ad:	c3                   	ret    
 80486ae:	66 90                	xchg   %ax,%ax

080486b0 <__libc_csu_init>:
 80486b0:	55                   	push   %ebp
 80486b1:	57                   	push   %edi
 80486b2:	56                   	push   %esi
 80486b3:	53                   	push   %ebx
 80486b4:	e8 67 fd ff ff       	call   8048420 <__x86.get_pc_thunk.bx>
 80486b9:	81 c3 47 19 00 00    	add    $0x1947,%ebx
 80486bf:	83 ec 0c             	sub    $0xc,%esp
 80486c2:	8b 6c 24 20          	mov    0x20(%esp),%ebp
 80486c6:	8d b3 0c ff ff ff    	lea    -0xf4(%ebx),%esi
 80486cc:	e8 7b fc ff ff       	call   804834c <_init>
 80486d1:	8d 83 08 ff ff ff    	lea    -0xf8(%ebx),%eax
 80486d7:	29 c6                	sub    %eax,%esi
 80486d9:	c1 fe 02             	sar    $0x2,%esi
 80486dc:	85 f6                	test   %esi,%esi
 80486de:	74 25                	je     8048705 <__libc_csu_init+0x55>
 80486e0:	31 ff                	xor    %edi,%edi
 80486e2:	8d b6 00 00 00 00    	lea    0x0(%esi),%esi
 80486e8:	83 ec 04             	sub    $0x4,%esp
 80486eb:	ff 74 24 2c          	pushl  0x2c(%esp)
 80486ef:	ff 74 24 2c          	pushl  0x2c(%esp)
 80486f3:	55                   	push   %ebp
 80486f4:	ff 94 bb 08 ff ff ff 	call   *-0xf8(%ebx,%edi,4)
 80486fb:	83 c7 01             	add    $0x1,%edi
 80486fe:	83 c4 10             	add    $0x10,%esp
 8048701:	39 f7                	cmp    %esi,%edi
 8048703:	75 e3                	jne    80486e8 <__libc_csu_init+0x38>
 8048705:	83 c4 0c             	add    $0xc,%esp
 8048708:	5b                   	pop    %ebx
 8048709:	5e                   	pop    %esi
 804870a:	5f                   	pop    %edi
 804870b:	5d                   	pop    %ebp
 804870c:	c3                   	ret    
 804870d:	8d 76 00             	lea    0x0(%esi),%esi

08048710 <__libc_csu_fini>:
 8048710:	f3 c3                	repz ret 

Disassembly of section .fini:

08048714 <_fini>:
 8048714:	53                   	push   %ebx
 8048715:	83 ec 08             	sub    $0x8,%esp
 8048718:	e8 03 fd ff ff       	call   8048420 <__x86.get_pc_thunk.bx>
 804871d:	81 c3 e3 18 00 00    	add    $0x18e3,%ebx
 8048723:	83 c4 08             	add    $0x8,%esp
 8048726:	5b                   	pop    %ebx
 8048727:	c3                   	ret    
