
09_angr_hooks:     file format elf32-i386


Disassembly of section .init:

08048370 <_init>:
 8048370:	53                   	push   %ebx
 8048371:	83 ec 08             	sub    $0x8,%esp
 8048374:	e8 e7 00 00 00       	call   8048460 <__x86.get_pc_thunk.bx>
 8048379:	81 c3 87 1c 00 00    	add    $0x1c87,%ebx
 804837f:	8b 83 fc ff ff ff    	mov    -0x4(%ebx),%eax
 8048385:	85 c0                	test   %eax,%eax
 8048387:	74 05                	je     804838e <_init+0x1e>
 8048389:	e8 92 00 00 00       	call   8048420 <__gmon_start__@plt>
 804838e:	83 c4 08             	add    $0x8,%esp
 8048391:	5b                   	pop    %ebx
 8048392:	c3                   	ret    

Disassembly of section .plt:

080483a0 <.plt>:
 80483a0:	ff 35 04 a0 04 08    	pushl  0x804a004
 80483a6:	ff 25 08 a0 04 08    	jmp    *0x804a008
 80483ac:	00 00                	add    %al,(%eax)
	...

080483b0 <printf@plt>:
 80483b0:	ff 25 0c a0 04 08    	jmp    *0x804a00c
 80483b6:	68 00 00 00 00       	push   $0x0
 80483bb:	e9 e0 ff ff ff       	jmp    80483a0 <.plt>

080483c0 <puts@plt>:
 80483c0:	ff 25 10 a0 04 08    	jmp    *0x804a010
 80483c6:	68 08 00 00 00       	push   $0x8
 80483cb:	e9 d0 ff ff ff       	jmp    80483a0 <.plt>

080483d0 <exit@plt>:
 80483d0:	ff 25 14 a0 04 08    	jmp    *0x804a014
 80483d6:	68 10 00 00 00       	push   $0x10
 80483db:	e9 c0 ff ff ff       	jmp    80483a0 <.plt>

080483e0 <__libc_start_main@plt>:
 80483e0:	ff 25 18 a0 04 08    	jmp    *0x804a018
 80483e6:	68 18 00 00 00       	push   $0x18
 80483eb:	e9 b0 ff ff ff       	jmp    80483a0 <.plt>

080483f0 <memset@plt>:
 80483f0:	ff 25 1c a0 04 08    	jmp    *0x804a01c
 80483f6:	68 20 00 00 00       	push   $0x20
 80483fb:	e9 a0 ff ff ff       	jmp    80483a0 <.plt>

08048400 <__isoc99_scanf@plt>:
 8048400:	ff 25 20 a0 04 08    	jmp    *0x804a020
 8048406:	68 28 00 00 00       	push   $0x28
 804840b:	e9 90 ff ff ff       	jmp    80483a0 <.plt>

08048410 <strncmp@plt>:
 8048410:	ff 25 24 a0 04 08    	jmp    *0x804a024
 8048416:	68 30 00 00 00       	push   $0x30
 804841b:	e9 80 ff ff ff       	jmp    80483a0 <.plt>

Disassembly of section .plt.got:

08048420 <__gmon_start__@plt>:
 8048420:	ff 25 fc 9f 04 08    	jmp    *0x8049ffc
 8048426:	66 90                	xchg   %ax,%ax

Disassembly of section .text:

08048430 <_start>:
 8048430:	31 ed                	xor    %ebp,%ebp
 8048432:	5e                   	pop    %esi
 8048433:	89 e1                	mov    %esp,%ecx
 8048435:	83 e4 f0             	and    $0xfffffff0,%esp
 8048438:	50                   	push   %eax
 8048439:	54                   	push   %esp
 804843a:	52                   	push   %edx
 804843b:	68 f0 87 04 08       	push   $0x80487f0
 8048440:	68 90 87 04 08       	push   $0x8048790
 8048445:	51                   	push   %ecx
 8048446:	56                   	push   %esi
 8048447:	68 f3 85 04 08       	push   $0x80485f3
 804844c:	e8 8f ff ff ff       	call   80483e0 <__libc_start_main@plt>
 8048451:	f4                   	hlt    
 8048452:	66 90                	xchg   %ax,%ax
 8048454:	66 90                	xchg   %ax,%ax
 8048456:	66 90                	xchg   %ax,%ax
 8048458:	66 90                	xchg   %ax,%ax
 804845a:	66 90                	xchg   %ax,%ax
 804845c:	66 90                	xchg   %ax,%ax
 804845e:	66 90                	xchg   %ax,%ax

08048460 <__x86.get_pc_thunk.bx>:
 8048460:	8b 1c 24             	mov    (%esp),%ebx
 8048463:	c3                   	ret    
 8048464:	66 90                	xchg   %ax,%ax
 8048466:	66 90                	xchg   %ax,%ax
 8048468:	66 90                	xchg   %ax,%ax
 804846a:	66 90                	xchg   %ax,%ax
 804846c:	66 90                	xchg   %ax,%ax
 804846e:	66 90                	xchg   %ax,%ax

08048470 <deregister_tm_clones>:
 8048470:	b8 43 a0 04 08       	mov    $0x804a043,%eax
 8048475:	2d 40 a0 04 08       	sub    $0x804a040,%eax
 804847a:	83 f8 06             	cmp    $0x6,%eax
 804847d:	76 1a                	jbe    8048499 <deregister_tm_clones+0x29>
 804847f:	b8 00 00 00 00       	mov    $0x0,%eax
 8048484:	85 c0                	test   %eax,%eax
 8048486:	74 11                	je     8048499 <deregister_tm_clones+0x29>
 8048488:	55                   	push   %ebp
 8048489:	89 e5                	mov    %esp,%ebp
 804848b:	83 ec 14             	sub    $0x14,%esp
 804848e:	68 40 a0 04 08       	push   $0x804a040
 8048493:	ff d0                	call   *%eax
 8048495:	83 c4 10             	add    $0x10,%esp
 8048498:	c9                   	leave  
 8048499:	f3 c3                	repz ret 
 804849b:	90                   	nop
 804849c:	8d 74 26 00          	lea    0x0(%esi,%eiz,1),%esi

080484a0 <register_tm_clones>:
 80484a0:	b8 40 a0 04 08       	mov    $0x804a040,%eax
 80484a5:	2d 40 a0 04 08       	sub    $0x804a040,%eax
 80484aa:	c1 f8 02             	sar    $0x2,%eax
 80484ad:	89 c2                	mov    %eax,%edx
 80484af:	c1 ea 1f             	shr    $0x1f,%edx
 80484b2:	01 d0                	add    %edx,%eax
 80484b4:	d1 f8                	sar    %eax
 80484b6:	74 1b                	je     80484d3 <register_tm_clones+0x33>
 80484b8:	ba 00 00 00 00       	mov    $0x0,%edx
 80484bd:	85 d2                	test   %edx,%edx
 80484bf:	74 12                	je     80484d3 <register_tm_clones+0x33>
 80484c1:	55                   	push   %ebp
 80484c2:	89 e5                	mov    %esp,%ebp
 80484c4:	83 ec 10             	sub    $0x10,%esp
 80484c7:	50                   	push   %eax
 80484c8:	68 40 a0 04 08       	push   $0x804a040
 80484cd:	ff d2                	call   *%edx
 80484cf:	83 c4 10             	add    $0x10,%esp
 80484d2:	c9                   	leave  
 80484d3:	f3 c3                	repz ret 
 80484d5:	8d 74 26 00          	lea    0x0(%esi,%eiz,1),%esi
 80484d9:	8d bc 27 00 00 00 00 	lea    0x0(%edi,%eiz,1),%edi

080484e0 <__do_global_dtors_aux>:
 80484e0:	80 3d 40 a0 04 08 00 	cmpb   $0x0,0x804a040
 80484e7:	75 13                	jne    80484fc <__do_global_dtors_aux+0x1c>
 80484e9:	55                   	push   %ebp
 80484ea:	89 e5                	mov    %esp,%ebp
 80484ec:	83 ec 08             	sub    $0x8,%esp
 80484ef:	e8 7c ff ff ff       	call   8048470 <deregister_tm_clones>
 80484f4:	c6 05 40 a0 04 08 01 	movb   $0x1,0x804a040
 80484fb:	c9                   	leave  
 80484fc:	f3 c3                	repz ret 
 80484fe:	66 90                	xchg   %ax,%ax

08048500 <frame_dummy>:
 8048500:	b8 10 9f 04 08       	mov    $0x8049f10,%eax
 8048505:	8b 10                	mov    (%eax),%edx
 8048507:	85 d2                	test   %edx,%edx
 8048509:	75 05                	jne    8048510 <frame_dummy+0x10>
 804850b:	eb 93                	jmp    80484a0 <register_tm_clones>
 804850d:	8d 76 00             	lea    0x0(%esi),%esi
 8048510:	ba 00 00 00 00       	mov    $0x0,%edx
 8048515:	85 d2                	test   %edx,%edx
 8048517:	74 f2                	je     804850b <frame_dummy+0xb>
 8048519:	55                   	push   %ebp
 804851a:	89 e5                	mov    %esp,%ebp
 804851c:	83 ec 14             	sub    $0x14,%esp
 804851f:	50                   	push   %eax
 8048520:	ff d2                	call   *%edx
 8048522:	83 c4 10             	add    $0x10,%esp
 8048525:	c9                   	leave  
 8048526:	e9 75 ff ff ff       	jmp    80484a0 <register_tm_clones>

0804852b <print_msg>:
 804852b:	55                   	push   %ebp
 804852c:	89 e5                	mov    %esp,%ebp
 804852e:	83 ec 08             	sub    $0x8,%esp
 8048531:	83 ec 08             	sub    $0x8,%esp
 8048534:	68 30 a0 04 08       	push   $0x804a030
 8048539:	68 10 88 04 08       	push   $0x8048810
 804853e:	e8 6d fe ff ff       	call   80483b0 <printf@plt>
 8048543:	83 c4 10             	add    $0x10,%esp
 8048546:	90                   	nop
 8048547:	c9                   	leave  
 8048548:	c3                   	ret    

08048549 <complex_function>:
 8048549:	55                   	push   %ebp
 804854a:	89 e5                	mov    %esp,%ebp
 804854c:	83 ec 08             	sub    $0x8,%esp
 804854f:	83 7d 08 40          	cmpl   $0x40,0x8(%ebp)
 8048553:	7e 06                	jle    804855b <complex_function+0x12>
 8048555:	83 7d 08 5a          	cmpl   $0x5a,0x8(%ebp)
 8048559:	7e 1a                	jle    8048575 <complex_function+0x2c>
 804855b:	83 ec 0c             	sub    $0xc,%esp
 804855e:	68 13 88 04 08       	push   $0x8048813
 8048563:	e8 58 fe ff ff       	call   80483c0 <puts@plt>
 8048568:	83 c4 10             	add    $0x10,%esp
 804856b:	83 ec 0c             	sub    $0xc,%esp
 804856e:	6a 01                	push   $0x1
 8048570:	e8 5b fe ff ff       	call   80483d0 <exit@plt>
 8048575:	8b 45 08             	mov    0x8(%ebp),%eax
 8048578:	8d 50 bf             	lea    -0x41(%eax),%edx
 804857b:	8b 45 0c             	mov    0xc(%ebp),%eax
 804857e:	6b c0 17             	imul   $0x17,%eax,%eax
 8048581:	8d 0c 02             	lea    (%edx,%eax,1),%ecx
 8048584:	ba 4f ec c4 4e       	mov    $0x4ec4ec4f,%edx
 8048589:	89 c8                	mov    %ecx,%eax
 804858b:	f7 ea                	imul   %edx
 804858d:	c1 fa 03             	sar    $0x3,%edx
 8048590:	89 c8                	mov    %ecx,%eax
 8048592:	c1 f8 1f             	sar    $0x1f,%eax
 8048595:	29 c2                	sub    %eax,%edx
 8048597:	89 d0                	mov    %edx,%eax
 8048599:	6b c0 1a             	imul   $0x1a,%eax,%eax
 804859c:	29 c1                	sub    %eax,%ecx
 804859e:	89 c8                	mov    %ecx,%eax
 80485a0:	83 c0 41             	add    $0x41,%eax
 80485a3:	c9                   	leave  
 80485a4:	c3                   	ret    

080485a5 <check_equals_XYMKBKUHNIQYNQXE>:
 80485a5:	55                   	push   %ebp
 80485a6:	89 e5                	mov    %esp,%ebp
 80485a8:	83 ec 10             	sub    $0x10,%esp
 80485ab:	c7 45 f8 00 00 00 00 	movl   $0x0,-0x8(%ebp)
 80485b2:	c7 45 fc 00 00 00 00 	movl   $0x0,-0x4(%ebp)
 80485b9:	eb 22                	jmp    80485dd <check_equals_XYMKBKUHNIQYNQXE+0x38>
 80485bb:	8b 55 fc             	mov    -0x4(%ebp),%edx
 80485be:	8b 45 08             	mov    0x8(%ebp),%eax
 80485c1:	01 d0                	add    %edx,%eax
 80485c3:	0f b6 10             	movzbl (%eax),%edx
 80485c6:	8b 45 fc             	mov    -0x4(%ebp),%eax
 80485c9:	05 44 a0 04 08       	add    $0x804a044,%eax
 80485ce:	0f b6 00             	movzbl (%eax),%eax
 80485d1:	38 c2                	cmp    %al,%dl
 80485d3:	75 04                	jne    80485d9 <check_equals_XYMKBKUHNIQYNQXE+0x34>
 80485d5:	83 45 f8 01          	addl   $0x1,-0x8(%ebp)
 80485d9:	83 45 fc 01          	addl   $0x1,-0x4(%ebp)
 80485dd:	8b 45 fc             	mov    -0x4(%ebp),%eax
 80485e0:	3b 45 0c             	cmp    0xc(%ebp),%eax
 80485e3:	72 d6                	jb     80485bb <check_equals_XYMKBKUHNIQYNQXE+0x16>
 80485e5:	8b 45 f8             	mov    -0x8(%ebp),%eax
 80485e8:	3b 45 0c             	cmp    0xc(%ebp),%eax
 80485eb:	0f 94 c0             	sete   %al
 80485ee:	0f b6 c0             	movzbl %al,%eax
 80485f1:	c9                   	leave  
 80485f2:	c3                   	ret    

080485f3 <main>:
 80485f3:	8d 4c 24 04          	lea    0x4(%esp),%ecx
 80485f7:	83 e4 f0             	and    $0xfffffff0,%esp
 80485fa:	ff 71 fc             	pushl  -0x4(%ecx)
 80485fd:	55                   	push   %ebp
 80485fe:	89 e5                	mov    %esp,%ebp
 8048600:	51                   	push   %ecx
 8048601:	83 ec 14             	sub    $0x14,%esp
 8048604:	c7 05 44 a0 04 08 58 	movl   $0x4b4d5958,0x804a044
 804860b:	59 4d 4b 
 804860e:	c7 05 48 a0 04 08 42 	movl   $0x48554b42,0x804a048
 8048615:	4b 55 48 
 8048618:	c7 05 4c a0 04 08 4e 	movl   $0x5951494e,0x804a04c
 804861f:	49 51 59 
 8048622:	c7 05 50 a0 04 08 4e 	movl   $0x4558514e,0x804a050
 8048629:	51 58 45 
 804862c:	83 ec 04             	sub    $0x4,%esp
 804862f:	6a 11                	push   $0x11
 8048631:	6a 00                	push   $0x0
 8048633:	68 54 a0 04 08       	push   $0x804a054
 8048638:	e8 b3 fd ff ff       	call   80483f0 <memset@plt>
 804863d:	83 c4 10             	add    $0x10,%esp
 8048640:	83 ec 0c             	sub    $0xc,%esp
 8048643:	68 1e 88 04 08       	push   $0x804881e
 8048648:	e8 63 fd ff ff       	call   80483b0 <printf@plt>
 804864d:	83 c4 10             	add    $0x10,%esp
 8048650:	83 ec 08             	sub    $0x8,%esp
 8048653:	68 54 a0 04 08       	push   $0x804a054
 8048658:	68 33 88 04 08       	push   $0x8048833
 804865d:	e8 9e fd ff ff       	call   8048400 <__isoc99_scanf@plt>
 8048662:	83 c4 10             	add    $0x10,%esp
 8048665:	c7 45 f0 00 00 00 00 	movl   $0x0,-0x10(%ebp)
 804866c:	eb 35                	jmp    80486a3 <main+0xb0>
 804866e:	b8 12 00 00 00       	mov    $0x12,%eax
 8048673:	2b 45 f0             	sub    -0x10(%ebp),%eax
 8048676:	89 c2                	mov    %eax,%edx
 8048678:	8b 45 f0             	mov    -0x10(%ebp),%eax
 804867b:	05 54 a0 04 08       	add    $0x804a054,%eax
 8048680:	0f b6 00             	movzbl (%eax),%eax
 8048683:	0f be c0             	movsbl %al,%eax
 8048686:	83 ec 08             	sub    $0x8,%esp
 8048689:	52                   	push   %edx
 804868a:	50                   	push   %eax
 804868b:	e8 b9 fe ff ff       	call   8048549 <complex_function>
 8048690:	83 c4 10             	add    $0x10,%esp
 8048693:	89 c2                	mov    %eax,%edx
 8048695:	8b 45 f0             	mov    -0x10(%ebp),%eax
 8048698:	05 54 a0 04 08       	add    $0x804a054,%eax
 804869d:	88 10                	mov    %dl,(%eax)
 804869f:	83 45 f0 01          	addl   $0x1,-0x10(%ebp)
 80486a3:	83 7d f0 0f          	cmpl   $0xf,-0x10(%ebp)
 80486a7:	7e c5                	jle    804866e <main+0x7b>
 80486a9:	83 ec 08             	sub    $0x8,%esp
 80486ac:	6a 10                	push   $0x10
 80486ae:	68 54 a0 04 08       	push   $0x804a054
 80486b3:	e8 ed fe ff ff       	call   80485a5 <check_equals_XYMKBKUHNIQYNQXE>
 80486b8:	83 c4 10             	add    $0x10,%esp
 80486bb:	a3 68 a0 04 08       	mov    %eax,0x804a068
 80486c0:	c7 45 f4 00 00 00 00 	movl   $0x0,-0xc(%ebp)
 80486c7:	eb 31                	jmp    80486fa <main+0x107>
 80486c9:	8b 45 f4             	mov    -0xc(%ebp),%eax
 80486cc:	8d 50 09             	lea    0x9(%eax),%edx
 80486cf:	8b 45 f4             	mov    -0xc(%ebp),%eax
 80486d2:	05 44 a0 04 08       	add    $0x804a044,%eax
 80486d7:	0f b6 00             	movzbl (%eax),%eax
 80486da:	0f be c0             	movsbl %al,%eax
 80486dd:	83 ec 08             	sub    $0x8,%esp
 80486e0:	52                   	push   %edx
 80486e1:	50                   	push   %eax
 80486e2:	e8 62 fe ff ff       	call   8048549 <complex_function>
 80486e7:	83 c4 10             	add    $0x10,%esp
 80486ea:	89 c2                	mov    %eax,%edx
 80486ec:	8b 45 f4             	mov    -0xc(%ebp),%eax
 80486ef:	05 44 a0 04 08       	add    $0x804a044,%eax
 80486f4:	88 10                	mov    %dl,(%eax)
 80486f6:	83 45 f4 01          	addl   $0x1,-0xc(%ebp)
 80486fa:	83 7d f4 0f          	cmpl   $0xf,-0xc(%ebp)
 80486fe:	7e c9                	jle    80486c9 <main+0xd6>
 8048700:	83 ec 08             	sub    $0x8,%esp
 8048703:	68 54 a0 04 08       	push   $0x804a054
 8048708:	68 33 88 04 08       	push   $0x8048833
 804870d:	e8 ee fc ff ff       	call   8048400 <__isoc99_scanf@plt>
 8048712:	83 c4 10             	add    $0x10,%esp
 8048715:	a1 68 a0 04 08       	mov    0x804a068,%eax
 804871a:	85 c0                	test   %eax,%eax
 804871c:	74 22                	je     8048740 <main+0x14d>
 804871e:	83 ec 04             	sub    $0x4,%esp
 8048721:	6a 10                	push   $0x10
 8048723:	68 44 a0 04 08       	push   $0x804a044
 8048728:	68 54 a0 04 08       	push   $0x804a054
 804872d:	e8 de fc ff ff       	call   8048410 <strncmp@plt>
 8048732:	83 c4 10             	add    $0x10,%esp
 8048735:	85 c0                	test   %eax,%eax
 8048737:	75 07                	jne    8048740 <main+0x14d>
 8048739:	b8 01 00 00 00       	mov    $0x1,%eax
 804873e:	eb 05                	jmp    8048745 <main+0x152>
 8048740:	b8 00 00 00 00       	mov    $0x0,%eax
 8048745:	a3 68 a0 04 08       	mov    %eax,0x804a068
 804874a:	a1 68 a0 04 08       	mov    0x804a068,%eax
 804874f:	85 c0                	test   %eax,%eax
 8048751:	75 12                	jne    8048765 <main+0x172>
 8048753:	83 ec 0c             	sub    $0xc,%esp
 8048756:	68 13 88 04 08       	push   $0x8048813
 804875b:	e8 60 fc ff ff       	call   80483c0 <puts@plt>
 8048760:	83 c4 10             	add    $0x10,%esp
 8048763:	eb 10                	jmp    8048775 <main+0x182>
 8048765:	83 ec 0c             	sub    $0xc,%esp
 8048768:	68 38 88 04 08       	push   $0x8048838
 804876d:	e8 4e fc ff ff       	call   80483c0 <puts@plt>
 8048772:	83 c4 10             	add    $0x10,%esp
 8048775:	b8 00 00 00 00       	mov    $0x0,%eax
 804877a:	8b 4d fc             	mov    -0x4(%ebp),%ecx
 804877d:	c9                   	leave  
 804877e:	8d 61 fc             	lea    -0x4(%ecx),%esp
 8048781:	c3                   	ret    
 8048782:	66 90                	xchg   %ax,%ax
 8048784:	66 90                	xchg   %ax,%ax
 8048786:	66 90                	xchg   %ax,%ax
 8048788:	66 90                	xchg   %ax,%ax
 804878a:	66 90                	xchg   %ax,%ax
 804878c:	66 90                	xchg   %ax,%ax
 804878e:	66 90                	xchg   %ax,%ax

08048790 <__libc_csu_init>:
 8048790:	55                   	push   %ebp
 8048791:	57                   	push   %edi
 8048792:	56                   	push   %esi
 8048793:	53                   	push   %ebx
 8048794:	e8 c7 fc ff ff       	call   8048460 <__x86.get_pc_thunk.bx>
 8048799:	81 c3 67 18 00 00    	add    $0x1867,%ebx
 804879f:	83 ec 0c             	sub    $0xc,%esp
 80487a2:	8b 6c 24 20          	mov    0x20(%esp),%ebp
 80487a6:	8d b3 0c ff ff ff    	lea    -0xf4(%ebx),%esi
 80487ac:	e8 bf fb ff ff       	call   8048370 <_init>
 80487b1:	8d 83 08 ff ff ff    	lea    -0xf8(%ebx),%eax
 80487b7:	29 c6                	sub    %eax,%esi
 80487b9:	c1 fe 02             	sar    $0x2,%esi
 80487bc:	85 f6                	test   %esi,%esi
 80487be:	74 25                	je     80487e5 <__libc_csu_init+0x55>
 80487c0:	31 ff                	xor    %edi,%edi
 80487c2:	8d b6 00 00 00 00    	lea    0x0(%esi),%esi
 80487c8:	83 ec 04             	sub    $0x4,%esp
 80487cb:	ff 74 24 2c          	pushl  0x2c(%esp)
 80487cf:	ff 74 24 2c          	pushl  0x2c(%esp)
 80487d3:	55                   	push   %ebp
 80487d4:	ff 94 bb 08 ff ff ff 	call   *-0xf8(%ebx,%edi,4)
 80487db:	83 c7 01             	add    $0x1,%edi
 80487de:	83 c4 10             	add    $0x10,%esp
 80487e1:	39 f7                	cmp    %esi,%edi
 80487e3:	75 e3                	jne    80487c8 <__libc_csu_init+0x38>
 80487e5:	83 c4 0c             	add    $0xc,%esp
 80487e8:	5b                   	pop    %ebx
 80487e9:	5e                   	pop    %esi
 80487ea:	5f                   	pop    %edi
 80487eb:	5d                   	pop    %ebp
 80487ec:	c3                   	ret    
 80487ed:	8d 76 00             	lea    0x0(%esi),%esi

080487f0 <__libc_csu_fini>:
 80487f0:	f3 c3                	repz ret 

Disassembly of section .fini:

080487f4 <_fini>:
 80487f4:	53                   	push   %ebx
 80487f5:	83 ec 08             	sub    $0x8,%esp
 80487f8:	e8 63 fc ff ff       	call   8048460 <__x86.get_pc_thunk.bx>
 80487fd:	81 c3 03 18 00 00    	add    $0x1803,%ebx
 8048803:	83 c4 08             	add    $0x8,%esp
 8048806:	5b                   	pop    %ebx
 8048807:	c3                   	ret    
