
11_angr_sim_scanf:     file format elf32-i386


Disassembly of section .init:

080483b4 <_init>:
 80483b4:	53                   	push   %ebx
 80483b5:	83 ec 08             	sub    $0x8,%esp
 80483b8:	e8 f3 00 00 00       	call   80484b0 <__x86.get_pc_thunk.bx>
 80483bd:	81 c3 43 8c 00 00    	add    $0x8c43,%ebx
 80483c3:	8b 83 fc ff ff ff    	mov    -0x4(%ebx),%eax
 80483c9:	85 c0                	test   %eax,%eax
 80483cb:	74 05                	je     80483d2 <_init+0x1e>
 80483cd:	e8 9e 00 00 00       	call   8048470 <__gmon_start__@plt>
 80483d2:	83 c4 08             	add    $0x8,%esp
 80483d5:	5b                   	pop    %ebx
 80483d6:	c3                   	ret    

Disassembly of section .plt:

080483e0 <.plt>:
 80483e0:	ff 35 04 10 05 08    	pushl  0x8051004
 80483e6:	ff 25 08 10 05 08    	jmp    *0x8051008
 80483ec:	00 00                	add    %al,(%eax)
	...

080483f0 <printf@plt>:
 80483f0:	ff 25 0c 10 05 08    	jmp    *0x805100c
 80483f6:	68 00 00 00 00       	push   $0x0
 80483fb:	e9 e0 ff ff ff       	jmp    80483e0 <.plt>

08048400 <__stack_chk_fail@plt>:
 8048400:	ff 25 10 10 05 08    	jmp    *0x8051010
 8048406:	68 08 00 00 00       	push   $0x8
 804840b:	e9 d0 ff ff ff       	jmp    80483e0 <.plt>

08048410 <puts@plt>:
 8048410:	ff 25 14 10 05 08    	jmp    *0x8051014
 8048416:	68 10 00 00 00       	push   $0x10
 804841b:	e9 c0 ff ff ff       	jmp    80483e0 <.plt>

08048420 <exit@plt>:
 8048420:	ff 25 18 10 05 08    	jmp    *0x8051018
 8048426:	68 18 00 00 00       	push   $0x18
 804842b:	e9 b0 ff ff ff       	jmp    80483e0 <.plt>

08048430 <__libc_start_main@plt>:
 8048430:	ff 25 1c 10 05 08    	jmp    *0x805101c
 8048436:	68 20 00 00 00       	push   $0x20
 804843b:	e9 a0 ff ff ff       	jmp    80483e0 <.plt>

08048440 <memset@plt>:
 8048440:	ff 25 20 10 05 08    	jmp    *0x8051020
 8048446:	68 28 00 00 00       	push   $0x28
 804844b:	e9 90 ff ff ff       	jmp    80483e0 <.plt>

08048450 <__isoc99_scanf@plt>:
 8048450:	ff 25 24 10 05 08    	jmp    *0x8051024
 8048456:	68 30 00 00 00       	push   $0x30
 804845b:	e9 80 ff ff ff       	jmp    80483e0 <.plt>

08048460 <strncmp@plt>:
 8048460:	ff 25 28 10 05 08    	jmp    *0x8051028
 8048466:	68 38 00 00 00       	push   $0x38
 804846b:	e9 70 ff ff ff       	jmp    80483e0 <.plt>

Disassembly of section .plt.got:

08048470 <__gmon_start__@plt>:
 8048470:	ff 25 fc 0f 05 08    	jmp    *0x8050ffc
 8048476:	66 90                	xchg   %ax,%ax

Disassembly of section .text:

08048480 <_start>:
 8048480:	31 ed                	xor    %ebp,%ebp
 8048482:	5e                   	pop    %esi
 8048483:	89 e1                	mov    %esp,%ecx
 8048485:	83 e4 f0             	and    $0xfffffff0,%esp
 8048488:	50                   	push   %eax
 8048489:	54                   	push   %esp
 804848a:	52                   	push   %edx
 804848b:	68 30 fd 04 08       	push   $0x804fd30
 8048490:	68 d0 fc 04 08       	push   $0x804fcd0
 8048495:	51                   	push   %ecx
 8048496:	56                   	push   %esi
 8048497:	68 f5 85 04 08       	push   $0x80485f5
 804849c:	e8 8f ff ff ff       	call   8048430 <__libc_start_main@plt>
 80484a1:	f4                   	hlt    
 80484a2:	66 90                	xchg   %ax,%ax
 80484a4:	66 90                	xchg   %ax,%ax
 80484a6:	66 90                	xchg   %ax,%ax
 80484a8:	66 90                	xchg   %ax,%ax
 80484aa:	66 90                	xchg   %ax,%ax
 80484ac:	66 90                	xchg   %ax,%ax
 80484ae:	66 90                	xchg   %ax,%ax

080484b0 <__x86.get_pc_thunk.bx>:
 80484b0:	8b 1c 24             	mov    (%esp),%ebx
 80484b3:	c3                   	ret    
 80484b4:	66 90                	xchg   %ax,%ax
 80484b6:	66 90                	xchg   %ax,%ax
 80484b8:	66 90                	xchg   %ax,%ax
 80484ba:	66 90                	xchg   %ax,%ax
 80484bc:	66 90                	xchg   %ax,%ax
 80484be:	66 90                	xchg   %ax,%ax

080484c0 <deregister_tm_clones>:
 80484c0:	b8 47 10 05 08       	mov    $0x8051047,%eax
 80484c5:	2d 44 10 05 08       	sub    $0x8051044,%eax
 80484ca:	83 f8 06             	cmp    $0x6,%eax
 80484cd:	76 1a                	jbe    80484e9 <deregister_tm_clones+0x29>
 80484cf:	b8 00 00 00 00       	mov    $0x0,%eax
 80484d4:	85 c0                	test   %eax,%eax
 80484d6:	74 11                	je     80484e9 <deregister_tm_clones+0x29>
 80484d8:	55                   	push   %ebp
 80484d9:	89 e5                	mov    %esp,%ebp
 80484db:	83 ec 14             	sub    $0x14,%esp
 80484de:	68 44 10 05 08       	push   $0x8051044
 80484e3:	ff d0                	call   *%eax
 80484e5:	83 c4 10             	add    $0x10,%esp
 80484e8:	c9                   	leave  
 80484e9:	f3 c3                	repz ret 
 80484eb:	90                   	nop
 80484ec:	8d 74 26 00          	lea    0x0(%esi,%eiz,1),%esi

080484f0 <register_tm_clones>:
 80484f0:	b8 44 10 05 08       	mov    $0x8051044,%eax
 80484f5:	2d 44 10 05 08       	sub    $0x8051044,%eax
 80484fa:	c1 f8 02             	sar    $0x2,%eax
 80484fd:	89 c2                	mov    %eax,%edx
 80484ff:	c1 ea 1f             	shr    $0x1f,%edx
 8048502:	01 d0                	add    %edx,%eax
 8048504:	d1 f8                	sar    %eax
 8048506:	74 1b                	je     8048523 <register_tm_clones+0x33>
 8048508:	ba 00 00 00 00       	mov    $0x0,%edx
 804850d:	85 d2                	test   %edx,%edx
 804850f:	74 12                	je     8048523 <register_tm_clones+0x33>
 8048511:	55                   	push   %ebp
 8048512:	89 e5                	mov    %esp,%ebp
 8048514:	83 ec 10             	sub    $0x10,%esp
 8048517:	50                   	push   %eax
 8048518:	68 44 10 05 08       	push   $0x8051044
 804851d:	ff d2                	call   *%edx
 804851f:	83 c4 10             	add    $0x10,%esp
 8048522:	c9                   	leave  
 8048523:	f3 c3                	repz ret 
 8048525:	8d 74 26 00          	lea    0x0(%esi,%eiz,1),%esi
 8048529:	8d bc 27 00 00 00 00 	lea    0x0(%edi,%eiz,1),%edi

08048530 <__do_global_dtors_aux>:
 8048530:	80 3d 60 10 05 08 00 	cmpb   $0x0,0x8051060
 8048537:	75 13                	jne    804854c <__do_global_dtors_aux+0x1c>
 8048539:	55                   	push   %ebp
 804853a:	89 e5                	mov    %esp,%ebp
 804853c:	83 ec 08             	sub    $0x8,%esp
 804853f:	e8 7c ff ff ff       	call   80484c0 <deregister_tm_clones>
 8048544:	c6 05 60 10 05 08 01 	movb   $0x1,0x8051060
 804854b:	c9                   	leave  
 804854c:	f3 c3                	repz ret 
 804854e:	66 90                	xchg   %ax,%ax

08048550 <frame_dummy>:
 8048550:	b8 10 0f 05 08       	mov    $0x8050f10,%eax
 8048555:	8b 10                	mov    (%eax),%edx
 8048557:	85 d2                	test   %edx,%edx
 8048559:	75 05                	jne    8048560 <frame_dummy+0x10>
 804855b:	eb 93                	jmp    80484f0 <register_tm_clones>
 804855d:	8d 76 00             	lea    0x0(%esi),%esi
 8048560:	ba 00 00 00 00       	mov    $0x0,%edx
 8048565:	85 d2                	test   %edx,%edx
 8048567:	74 f2                	je     804855b <frame_dummy+0xb>
 8048569:	55                   	push   %ebp
 804856a:	89 e5                	mov    %esp,%ebp
 804856c:	83 ec 14             	sub    $0x14,%esp
 804856f:	50                   	push   %eax
 8048570:	ff d2                	call   *%edx
 8048572:	83 c4 10             	add    $0x10,%esp
 8048575:	c9                   	leave  
 8048576:	e9 75 ff ff ff       	jmp    80484f0 <register_tm_clones>

0804857b <print_msg>:
 804857b:	55                   	push   %ebp
 804857c:	89 e5                	mov    %esp,%ebp
 804857e:	83 ec 08             	sub    $0x8,%esp
 8048581:	83 ec 08             	sub    $0x8,%esp
 8048584:	68 34 10 05 08       	push   $0x8051034
 8048589:	68 50 fd 04 08       	push   $0x804fd50
 804858e:	e8 5d fe ff ff       	call   80483f0 <printf@plt>
 8048593:	83 c4 10             	add    $0x10,%esp
 8048596:	90                   	nop
 8048597:	c9                   	leave  
 8048598:	c3                   	ret    

08048599 <complex_function>:
 8048599:	55                   	push   %ebp
 804859a:	89 e5                	mov    %esp,%ebp
 804859c:	83 ec 08             	sub    $0x8,%esp
 804859f:	83 7d 08 40          	cmpl   $0x40,0x8(%ebp)
 80485a3:	7e 06                	jle    80485ab <complex_function+0x12>
 80485a5:	83 7d 08 5a          	cmpl   $0x5a,0x8(%ebp)
 80485a9:	7e 1a                	jle    80485c5 <complex_function+0x2c>
 80485ab:	83 ec 0c             	sub    $0xc,%esp
 80485ae:	68 53 fd 04 08       	push   $0x804fd53
 80485b3:	e8 58 fe ff ff       	call   8048410 <puts@plt>
 80485b8:	83 c4 10             	add    $0x10,%esp
 80485bb:	83 ec 0c             	sub    $0xc,%esp
 80485be:	6a 01                	push   $0x1
 80485c0:	e8 5b fe ff ff       	call   8048420 <exit@plt>
 80485c5:	8b 45 08             	mov    0x8(%ebp),%eax
 80485c8:	8d 50 bf             	lea    -0x41(%eax),%edx
 80485cb:	8b 45 0c             	mov    0xc(%ebp),%eax
 80485ce:	6b c0 1d             	imul   $0x1d,%eax,%eax
 80485d1:	8d 0c 02             	lea    (%edx,%eax,1),%ecx
 80485d4:	ba 4f ec c4 4e       	mov    $0x4ec4ec4f,%edx
 80485d9:	89 c8                	mov    %ecx,%eax
 80485db:	f7 ea                	imul   %edx
 80485dd:	c1 fa 03             	sar    $0x3,%edx
 80485e0:	89 c8                	mov    %ecx,%eax
 80485e2:	c1 f8 1f             	sar    $0x1f,%eax
 80485e5:	29 c2                	sub    %eax,%edx
 80485e7:	89 d0                	mov    %edx,%eax
 80485e9:	6b c0 1a             	imul   $0x1a,%eax,%eax
 80485ec:	29 c1                	sub    %eax,%ecx
 80485ee:	89 c8                	mov    %ecx,%eax
 80485f0:	83 c0 41             	add    $0x41,%eax
 80485f3:	c9                   	leave  
 80485f4:	c3                   	ret    

080485f5 <main>:
 80485f5:	8d 4c 24 04          	lea    0x4(%esp),%ecx
 80485f9:	83 e4 f0             	and    $0xfffffff0,%esp
 80485fc:	ff 71 fc             	pushl  -0x4(%ecx)
 80485ff:	55                   	push   %ebp
 8048600:	89 e5                	mov    %esp,%ebp
 8048602:	51                   	push   %ecx
 8048603:	83 ec 44             	sub    $0x44,%esp
 8048606:	89 c8                	mov    %ecx,%eax
 8048608:	8b 40 04             	mov    0x4(%eax),%eax
 804860b:	89 45 c4             	mov    %eax,-0x3c(%ebp)
 804860e:	65 a1 14 00 00 00    	mov    %gs:0x14,%eax
 8048614:	89 45 f4             	mov    %eax,-0xc(%ebp)
 8048617:	31 c0                	xor    %eax,%eax
 8048619:	c7 45 d4 01 00 00 00 	movl   $0x1,-0x2c(%ebp)
 8048620:	c7 45 dc ef be ad de 	movl   $0xdeadbeef,-0x24(%ebp)
 8048627:	83 ec 04             	sub    $0x4,%esp
 804862a:	6a 14                	push   $0x14
 804862c:	6a 00                	push   $0x0
 804862e:	8d 45 e0             	lea    -0x20(%ebp),%eax
 8048631:	50                   	push   %eax
 8048632:	e8 09 fe ff ff       	call   8048440 <memset@plt>
 8048637:	83 c4 10             	add    $0x10,%esp
 804863a:	8d 45 e0             	lea    -0x20(%ebp),%eax
 804863d:	c7 00 53 55 51 4d    	movl   $0x4d515553,(%eax)
 8048643:	c7 40 04 4b 51 46 58 	movl   $0x5846514b,0x4(%eax)
 804864a:	c7 45 d8 00 00 00 00 	movl   $0x0,-0x28(%ebp)
 8048651:	eb 2d                	jmp    8048680 <main+0x8b>
 8048653:	8d 55 e0             	lea    -0x20(%ebp),%edx
 8048656:	8b 45 d8             	mov    -0x28(%ebp),%eax
 8048659:	01 d0                	add    %edx,%eax
 804865b:	0f b6 00             	movzbl (%eax),%eax
 804865e:	0f be c0             	movsbl %al,%eax
 8048661:	83 ec 08             	sub    $0x8,%esp
 8048664:	ff 75 d8             	pushl  -0x28(%ebp)
 8048667:	50                   	push   %eax
 8048668:	e8 2c ff ff ff       	call   8048599 <complex_function>
 804866d:	83 c4 10             	add    $0x10,%esp
 8048670:	89 c1                	mov    %eax,%ecx
 8048672:	8d 55 e0             	lea    -0x20(%ebp),%edx
 8048675:	8b 45 d8             	mov    -0x28(%ebp),%eax
 8048678:	01 d0                	add    %edx,%eax
 804867a:	88 08                	mov    %cl,(%eax)
 804867c:	83 45 d8 01          	addl   $0x1,-0x28(%ebp)
 8048680:	83 7d d8 07          	cmpl   $0x7,-0x28(%ebp)
 8048684:	7e cd                	jle    8048653 <main+0x5e>
 8048686:	83 ec 0c             	sub    $0xc,%esp
 8048689:	68 5e fd 04 08       	push   $0x804fd5e
 804868e:	e8 5d fd ff ff       	call   80483f0 <printf@plt>
 8048693:	83 c4 10             	add    $0x10,%esp
 8048696:	81 7d dc ef be ad de 	cmpl   $0xdeadbeef,-0x24(%ebp)
 804869d:	0f 85 f3 3a 00 00    	jne    804c196 <main+0x3ba1>
 80486a3:	81 7d dc ef be ad de 	cmpl   $0xdeadbeef,-0x24(%ebp)
 80486aa:	0f 84 73 1d 00 00    	je     804a423 <main+0x1e2e>
 80486b0:	81 7d dc ef be ad de 	cmpl   $0xdeadbeef,-0x24(%ebp)
 80486b7:	0f 84 b3 0e 00 00    	je     8049570 <main+0xf7b>
 80486bd:	81 7d dc ef be ad de 	cmpl   $0xdeadbeef,-0x24(%ebp)
 80486c4:	0f 84 53 07 00 00    	je     8048e1d <main+0x828>
 80486ca:	81 7d dc ef be ad de 	cmpl   $0xdeadbeef,-0x24(%ebp)
 80486d1:	0f 84 a3 03 00 00    	je     8048a7a <main+0x485>
 80486d7:	81 7d dc ef be ad de 	cmpl   $0xdeadbeef,-0x24(%ebp)
 80486de:	0f 84 cb 01 00 00    	je     80488af <main+0x2ba>
 80486e4:	81 7d dc ef be ad de 	cmpl   $0xdeadbeef,-0x24(%ebp)
 80486eb:	0f 85 df 00 00 00    	jne    80487d0 <main+0x1db>
 80486f1:	81 7d dc ef be ad de 	cmpl   $0xdeadbeef,-0x24(%ebp)
 80486f8:	74 6b                	je     8048765 <main+0x170>
 80486fa:	83 ec 04             	sub    $0x4,%esp
 80486fd:	68 ec 90 06 08       	push   $0x80690ec
 8048702:	68 d8 4d 06 08       	push   $0x8064dd8
 8048707:	68 73 fd 04 08       	push   $0x804fd73
 804870c:	e8 3f fd ff ff       	call   8048450 <__isoc99_scanf@plt>
 8048711:	83 c4 10             	add    $0x10,%esp
 8048714:	83 7d d4 00          	cmpl   $0x0,-0x2c(%ebp)
 8048718:	74 3e                	je     8048758 <main+0x163>
 804871a:	83 ec 04             	sub    $0x4,%esp
 804871d:	6a 04                	push   $0x4
 804871f:	8d 45 e0             	lea    -0x20(%ebp),%eax
 8048722:	50                   	push   %eax
 8048723:	68 d8 4d 06 08       	push   $0x8064dd8
 8048728:	e8 33 fd ff ff       	call   8048460 <strncmp@plt>
 804872d:	83 c4 10             	add    $0x10,%esp
 8048730:	85 c0                	test   %eax,%eax
 8048732:	75 24                	jne    8048758 <main+0x163>
 8048734:	83 ec 04             	sub    $0x4,%esp
 8048737:	6a 04                	push   $0x4
 8048739:	8d 45 e0             	lea    -0x20(%ebp),%eax
 804873c:	83 c0 04             	add    $0x4,%eax
 804873f:	50                   	push   %eax
 8048740:	68 ec 90 06 08       	push   $0x80690ec
 8048745:	e8 16 fd ff ff       	call   8048460 <strncmp@plt>
 804874a:	83 c4 10             	add    $0x10,%esp
 804874d:	85 c0                	test   %eax,%eax
 804874f:	75 07                	jne    8048758 <main+0x163>
 8048751:	b8 01 00 00 00       	mov    $0x1,%eax
 8048756:	eb 05                	jmp    804875d <main+0x168>
 8048758:	b8 00 00 00 00       	mov    $0x0,%eax
 804875d:	89 45 d4             	mov    %eax,-0x2c(%ebp)
 8048760:	e9 1c 75 00 00       	jmp    804fc81 <main+0x768c>
 8048765:	83 ec 04             	sub    $0x4,%esp
 8048768:	68 ec 90 06 08       	push   $0x80690ec
 804876d:	68 d8 4d 06 08       	push   $0x8064dd8
 8048772:	68 73 fd 04 08       	push   $0x804fd73
 8048777:	e8 d4 fc ff ff       	call   8048450 <__isoc99_scanf@plt>
 804877c:	83 c4 10             	add    $0x10,%esp
 804877f:	83 7d d4 00          	cmpl   $0x0,-0x2c(%ebp)
 8048783:	74 3e                	je     80487c3 <main+0x1ce>
 8048785:	83 ec 04             	sub    $0x4,%esp
 8048788:	6a 04                	push   $0x4
 804878a:	8d 45 e0             	lea    -0x20(%ebp),%eax
 804878d:	50                   	push   %eax
 804878e:	68 d8 4d 06 08       	push   $0x8064dd8
 8048793:	e8 c8 fc ff ff       	call   8048460 <strncmp@plt>
 8048798:	83 c4 10             	add    $0x10,%esp
 804879b:	85 c0                	test   %eax,%eax
 804879d:	75 24                	jne    80487c3 <main+0x1ce>
 804879f:	83 ec 04             	sub    $0x4,%esp
 80487a2:	6a 04                	push   $0x4
 80487a4:	8d 45 e0             	lea    -0x20(%ebp),%eax
 80487a7:	83 c0 04             	add    $0x4,%eax
 80487aa:	50                   	push   %eax
 80487ab:	68 ec 90 06 08       	push   $0x80690ec
 80487b0:	e8 ab fc ff ff       	call   8048460 <strncmp@plt>
 80487b5:	83 c4 10             	add    $0x10,%esp
 80487b8:	85 c0                	test   %eax,%eax
 80487ba:	75 07                	jne    80487c3 <main+0x1ce>
 80487bc:	b8 01 00 00 00       	mov    $0x1,%eax
 80487c1:	eb 05                	jmp    80487c8 <main+0x1d3>
 80487c3:	b8 00 00 00 00       	mov    $0x0,%eax
 80487c8:	89 45 d4             	mov    %eax,-0x2c(%ebp)
 80487cb:	e9 b1 74 00 00       	jmp    804fc81 <main+0x768c>
 80487d0:	81 7d dc ef be ad de 	cmpl   $0xdeadbeef,-0x24(%ebp)
 80487d7:	75 6b                	jne    8048844 <main+0x24f>
 80487d9:	83 ec 04             	sub    $0x4,%esp
 80487dc:	68 ec 90 06 08       	push   $0x80690ec
 80487e1:	68 d8 4d 06 08       	push   $0x8064dd8
 80487e6:	68 73 fd 04 08       	push   $0x804fd73
 80487eb:	e8 60 fc ff ff       	call   8048450 <__isoc99_scanf@plt>
 80487f0:	83 c4 10             	add    $0x10,%esp
 80487f3:	83 7d d4 00          	cmpl   $0x0,-0x2c(%ebp)
 80487f7:	74 3e                	je     8048837 <main+0x242>
 80487f9:	83 ec 04             	sub    $0x4,%esp
 80487fc:	6a 04                	push   $0x4
 80487fe:	8d 45 e0             	lea    -0x20(%ebp),%eax
 8048801:	50                   	push   %eax
 8048802:	68 d8 4d 06 08       	push   $0x8064dd8
 8048807:	e8 54 fc ff ff       	call   8048460 <strncmp@plt>
 804880c:	83 c4 10             	add    $0x10,%esp
 804880f:	85 c0                	test   %eax,%eax
 8048811:	75 24                	jne    8048837 <main+0x242>
 8048813:	83 ec 04             	sub    $0x4,%esp
 8048816:	6a 04                	push   $0x4
 8048818:	8d 45 e0             	lea    -0x20(%ebp),%eax
 804881b:	83 c0 04             	add    $0x4,%eax
 804881e:	50                   	push   %eax
 804881f:	68 ec 90 06 08       	push   $0x80690ec
 8048824:	e8 37 fc ff ff       	call   8048460 <strncmp@plt>
 8048829:	83 c4 10             	add    $0x10,%esp
 804882c:	85 c0                	test   %eax,%eax
 804882e:	75 07                	jne    8048837 <main+0x242>
 8048830:	b8 01 00 00 00       	mov    $0x1,%eax
 8048835:	eb 05                	jmp    804883c <main+0x247>
 8048837:	b8 00 00 00 00       	mov    $0x0,%eax
 804883c:	89 45 d4             	mov    %eax,-0x2c(%ebp)
 804883f:	e9 3d 74 00 00       	jmp    804fc81 <main+0x768c>
 8048844:	83 ec 04             	sub    $0x4,%esp
 8048847:	68 ec 90 06 08       	push   $0x80690ec
 804884c:	68 d8 4d 06 08       	push   $0x8064dd8
 8048851:	68 73 fd 04 08       	push   $0x804fd73
 8048856:	e8 f5 fb ff ff       	call   8048450 <__isoc99_scanf@plt>
 804885b:	83 c4 10             	add    $0x10,%esp
 804885e:	83 7d d4 00          	cmpl   $0x0,-0x2c(%ebp)
 8048862:	74 3e                	je     80488a2 <main+0x2ad>
 8048864:	83 ec 04             	sub    $0x4,%esp
 8048867:	6a 04                	push   $0x4
 8048869:	8d 45 e0             	lea    -0x20(%ebp),%eax
 804886c:	50                   	push   %eax
 804886d:	68 d8 4d 06 08       	push   $0x8064dd8
 8048872:	e8 e9 fb ff ff       	call   8048460 <strncmp@plt>
 8048877:	83 c4 10             	add    $0x10,%esp
 804887a:	85 c0                	test   %eax,%eax
 804887c:	75 24                	jne    80488a2 <main+0x2ad>
 804887e:	83 ec 04             	sub    $0x4,%esp
 8048881:	6a 04                	push   $0x4
 8048883:	8d 45 e0             	lea    -0x20(%ebp),%eax
 8048886:	83 c0 04             	add    $0x4,%eax
 8048889:	50                   	push   %eax
 804888a:	68 ec 90 06 08       	push   $0x80690ec
 804888f:	e8 cc fb ff ff       	call   8048460 <strncmp@plt>
 8048894:	83 c4 10             	add    $0x10,%esp
 8048897:	85 c0                	test   %eax,%eax
 8048899:	75 07                	jne    80488a2 <main+0x2ad>
 804889b:	b8 01 00 00 00       	mov    $0x1,%eax
 80488a0:	eb 05                	jmp    80488a7 <main+0x2b2>
 80488a2:	b8 00 00 00 00       	mov    $0x0,%eax
 80488a7:	89 45 d4             	mov    %eax,-0x2c(%ebp)
 80488aa:	e9 d2 73 00 00       	jmp    804fc81 <main+0x768c>
 80488af:	81 7d dc ef be ad de 	cmpl   $0xdeadbeef,-0x24(%ebp)
 80488b6:	0f 84 df 00 00 00    	je     804899b <main+0x3a6>
 80488bc:	81 7d dc ef be ad de 	cmpl   $0xdeadbeef,-0x24(%ebp)
 80488c3:	74 6b                	je     8048930 <main+0x33b>
 80488c5:	83 ec 04             	sub    $0x4,%esp
 80488c8:	68 ec 90 06 08       	push   $0x80690ec
 80488cd:	68 d8 4d 06 08       	push   $0x8064dd8
 80488d2:	68 73 fd 04 08       	push   $0x804fd73
 80488d7:	e8 74 fb ff ff       	call   8048450 <__isoc99_scanf@plt>
 80488dc:	83 c4 10             	add    $0x10,%esp
 80488df:	83 7d d4 00          	cmpl   $0x0,-0x2c(%ebp)
 80488e3:	74 3e                	je     8048923 <main+0x32e>
 80488e5:	83 ec 04             	sub    $0x4,%esp
 80488e8:	6a 04                	push   $0x4
 80488ea:	8d 45 e0             	lea    -0x20(%ebp),%eax
 80488ed:	50                   	push   %eax
 80488ee:	68 d8 4d 06 08       	push   $0x8064dd8
 80488f3:	e8 68 fb ff ff       	call   8048460 <strncmp@plt>
 80488f8:	83 c4 10             	add    $0x10,%esp
 80488fb:	85 c0                	test   %eax,%eax
 80488fd:	75 24                	jne    8048923 <main+0x32e>
 80488ff:	83 ec 04             	sub    $0x4,%esp
 8048902:	6a 04                	push   $0x4
 8048904:	8d 45 e0             	lea    -0x20(%ebp),%eax
 8048907:	83 c0 04             	add    $0x4,%eax
 804890a:	50                   	push   %eax
 804890b:	68 ec 90 06 08       	push   $0x80690ec
 8048910:	e8 4b fb ff ff       	call   8048460 <strncmp@plt>
 8048915:	83 c4 10             	add    $0x10,%esp
 8048918:	85 c0                	test   %eax,%eax
 804891a:	75 07                	jne    8048923 <main+0x32e>
 804891c:	b8 01 00 00 00       	mov    $0x1,%eax
 8048921:	eb 05                	jmp    8048928 <main+0x333>
 8048923:	b8 00 00 00 00       	mov    $0x0,%eax
 8048928:	89 45 d4             	mov    %eax,-0x2c(%ebp)
 804892b:	e9 51 73 00 00       	jmp    804fc81 <main+0x768c>
 8048930:	83 ec 04             	sub    $0x4,%esp
 8048933:	68 ec 90 06 08       	push   $0x80690ec
 8048938:	68 d8 4d 06 08       	push   $0x8064dd8
 804893d:	68 73 fd 04 08       	push   $0x804fd73
 8048942:	e8 09 fb ff ff       	call   8048450 <__isoc99_scanf@plt>
 8048947:	83 c4 10             	add    $0x10,%esp
 804894a:	83 7d d4 00          	cmpl   $0x0,-0x2c(%ebp)
 804894e:	74 3e                	je     804898e <main+0x399>
 8048950:	83 ec 04             	sub    $0x4,%esp
 8048953:	6a 04                	push   $0x4
 8048955:	8d 45 e0             	lea    -0x20(%ebp),%eax
 8048958:	50                   	push   %eax
 8048959:	68 d8 4d 06 08       	push   $0x8064dd8
 804895e:	e8 fd fa ff ff       	call   8048460 <strncmp@plt>
 8048963:	83 c4 10             	add    $0x10,%esp
 8048966:	85 c0                	test   %eax,%eax
 8048968:	75 24                	jne    804898e <main+0x399>
 804896a:	83 ec 04             	sub    $0x4,%esp
 804896d:	6a 04                	push   $0x4
 804896f:	8d 45 e0             	lea    -0x20(%ebp),%eax
 8048972:	83 c0 04             	add    $0x4,%eax
 8048975:	50                   	push   %eax
 8048976:	68 ec 90 06 08       	push   $0x80690ec
 804897b:	e8 e0 fa ff ff       	call   8048460 <strncmp@plt>
 8048980:	83 c4 10             	add    $0x10,%esp
 8048983:	85 c0                	test   %eax,%eax
 8048985:	75 07                	jne    804898e <main+0x399>
 8048987:	b8 01 00 00 00       	mov    $0x1,%eax
 804898c:	eb 05                	jmp    8048993 <main+0x39e>
 804898e:	b8 00 00 00 00       	mov    $0x0,%eax
 8048993:	89 45 d4             	mov    %eax,-0x2c(%ebp)
 8048996:	e9 e6 72 00 00       	jmp    804fc81 <main+0x768c>
 804899b:	81 7d dc ef be ad de 	cmpl   $0xdeadbeef,-0x24(%ebp)
 80489a2:	74 6b                	je     8048a0f <main+0x41a>
 80489a4:	83 ec 04             	sub    $0x4,%esp
 80489a7:	68 ec 90 06 08       	push   $0x80690ec
 80489ac:	68 d8 4d 06 08       	push   $0x8064dd8
 80489b1:	68 73 fd 04 08       	push   $0x804fd73
 80489b6:	e8 95 fa ff ff       	call   8048450 <__isoc99_scanf@plt>
 80489bb:	83 c4 10             	add    $0x10,%esp
 80489be:	83 7d d4 00          	cmpl   $0x0,-0x2c(%ebp)
 80489c2:	74 3e                	je     8048a02 <main+0x40d>
 80489c4:	83 ec 04             	sub    $0x4,%esp
 80489c7:	6a 04                	push   $0x4
 80489c9:	8d 45 e0             	lea    -0x20(%ebp),%eax
 80489cc:	50                   	push   %eax
 80489cd:	68 d8 4d 06 08       	push   $0x8064dd8
 80489d2:	e8 89 fa ff ff       	call   8048460 <strncmp@plt>
 80489d7:	83 c4 10             	add    $0x10,%esp
 80489da:	85 c0                	test   %eax,%eax
 80489dc:	75 24                	jne    8048a02 <main+0x40d>
 80489de:	83 ec 04             	sub    $0x4,%esp
 80489e1:	6a 04                	push   $0x4
 80489e3:	8d 45 e0             	lea    -0x20(%ebp),%eax
 80489e6:	83 c0 04             	add    $0x4,%eax
 80489e9:	50                   	push   %eax
 80489ea:	68 ec 90 06 08       	push   $0x80690ec
 80489ef:	e8 6c fa ff ff       	call   8048460 <strncmp@plt>
 80489f4:	83 c4 10             	add    $0x10,%esp
 80489f7:	85 c0                	test   %eax,%eax
 80489f9:	75 07                	jne    8048a02 <main+0x40d>
 80489fb:	b8 01 00 00 00       	mov    $0x1,%eax
 8048a00:	eb 05                	jmp    8048a07 <main+0x412>
 8048a02:	b8 00 00 00 00       	mov    $0x0,%eax
 8048a07:	89 45 d4             	mov    %eax,-0x2c(%ebp)
 8048a0a:	e9 72 72 00 00       	jmp    804fc81 <main+0x768c>
 8048a0f:	83 ec 04             	sub    $0x4,%esp
 8048a12:	68 ec 90 06 08       	push   $0x80690ec
 8048a17:	68 d8 4d 06 08       	push   $0x8064dd8
 8048a1c:	68 73 fd 04 08       	push   $0x804fd73
 8048a21:	e8 2a fa ff ff       	call   8048450 <__isoc99_scanf@plt>
 8048a26:	83 c4 10             	add    $0x10,%esp
 8048a29:	83 7d d4 00          	cmpl   $0x0,-0x2c(%ebp)
 8048a2d:	74 3e                	je     8048a6d <main+0x478>
 8048a2f:	83 ec 04             	sub    $0x4,%esp
 8048a32:	6a 04                	push   $0x4
 8048a34:	8d 45 e0             	lea    -0x20(%ebp),%eax
 8048a37:	50                   	push   %eax
 8048a38:	68 d8 4d 06 08       	push   $0x8064dd8
 8048a3d:	e8 1e fa ff ff       	call   8048460 <strncmp@plt>
 8048a42:	83 c4 10             	add    $0x10,%esp
 8048a45:	85 c0                	test   %eax,%eax
 8048a47:	75 24                	jne    8048a6d <main+0x478>
 8048a49:	83 ec 04             	sub    $0x4,%esp
 8048a4c:	6a 04                	push   $0x4
 8048a4e:	8d 45 e0             	lea    -0x20(%ebp),%eax
 8048a51:	83 c0 04             	add    $0x4,%eax
 8048a54:	50                   	push   %eax
 8048a55:	68 ec 90 06 08       	push   $0x80690ec
 8048a5a:	e8 01 fa ff ff       	call   8048460 <strncmp@plt>
 8048a5f:	83 c4 10             	add    $0x10,%esp
 8048a62:	85 c0                	test   %eax,%eax
 8048a64:	75 07                	jne    8048a6d <main+0x478>
 8048a66:	b8 01 00 00 00       	mov    $0x1,%eax
 8048a6b:	eb 05                	jmp    8048a72 <main+0x47d>
 8048a6d:	b8 00 00 00 00       	mov    $0x0,%eax
 8048a72:	89 45 d4             	mov    %eax,-0x2c(%ebp)
 8048a75:	e9 07 72 00 00       	jmp    804fc81 <main+0x768c>
 8048a7a:	81 7d dc ef be ad de 	cmpl   $0xdeadbeef,-0x24(%ebp)
 8048a81:	0f 85 cb 01 00 00    	jne    8048c52 <main+0x65d>
 8048a87:	81 7d dc ef be ad de 	cmpl   $0xdeadbeef,-0x24(%ebp)
 8048a8e:	0f 84 df 00 00 00    	je     8048b73 <main+0x57e>
 8048a94:	81 7d dc ef be ad de 	cmpl   $0xdeadbeef,-0x24(%ebp)
 8048a9b:	75 6b                	jne    8048b08 <main+0x513>
 8048a9d:	83 ec 04             	sub    $0x4,%esp
 8048aa0:	68 ec 90 06 08       	push   $0x80690ec
 8048aa5:	68 d8 4d 06 08       	push   $0x8064dd8
 8048aaa:	68 73 fd 04 08       	push   $0x804fd73
 8048aaf:	e8 9c f9 ff ff       	call   8048450 <__isoc99_scanf@plt>
 8048ab4:	83 c4 10             	add    $0x10,%esp
 8048ab7:	83 7d d4 00          	cmpl   $0x0,-0x2c(%ebp)
 8048abb:	74 3e                	je     8048afb <main+0x506>
 8048abd:	83 ec 04             	sub    $0x4,%esp
 8048ac0:	6a 04                	push   $0x4
 8048ac2:	8d 45 e0             	lea    -0x20(%ebp),%eax
 8048ac5:	50                   	push   %eax
 8048ac6:	68 d8 4d 06 08       	push   $0x8064dd8
 8048acb:	e8 90 f9 ff ff       	call   8048460 <strncmp@plt>
 8048ad0:	83 c4 10             	add    $0x10,%esp
 8048ad3:	85 c0                	test   %eax,%eax
 8048ad5:	75 24                	jne    8048afb <main+0x506>
 8048ad7:	83 ec 04             	sub    $0x4,%esp
 8048ada:	6a 04                	push   $0x4
 8048adc:	8d 45 e0             	lea    -0x20(%ebp),%eax
 8048adf:	83 c0 04             	add    $0x4,%eax
 8048ae2:	50                   	push   %eax
 8048ae3:	68 ec 90 06 08       	push   $0x80690ec
 8048ae8:	e8 73 f9 ff ff       	call   8048460 <strncmp@plt>
 8048aed:	83 c4 10             	add    $0x10,%esp
 8048af0:	85 c0                	test   %eax,%eax
 8048af2:	75 07                	jne    8048afb <main+0x506>
 8048af4:	b8 01 00 00 00       	mov    $0x1,%eax
 8048af9:	eb 05                	jmp    8048b00 <main+0x50b>
 8048afb:	b8 00 00 00 00       	mov    $0x0,%eax
 8048b00:	89 45 d4             	mov    %eax,-0x2c(%ebp)
 8048b03:	e9 79 71 00 00       	jmp    804fc81 <main+0x768c>
 8048b08:	83 ec 04             	sub    $0x4,%esp
 8048b0b:	68 ec 90 06 08       	push   $0x80690ec
 8048b10:	68 d8 4d 06 08       	push   $0x8064dd8
 8048b15:	68 73 fd 04 08       	push   $0x804fd73
 8048b1a:	e8 31 f9 ff ff       	call   8048450 <__isoc99_scanf@plt>
 8048b1f:	83 c4 10             	add    $0x10,%esp
 8048b22:	83 7d d4 00          	cmpl   $0x0,-0x2c(%ebp)
 8048b26:	74 3e                	je     8048b66 <main+0x571>
 8048b28:	83 ec 04             	sub    $0x4,%esp
 8048b2b:	6a 04                	push   $0x4
 8048b2d:	8d 45 e0             	lea    -0x20(%ebp),%eax
 8048b30:	50                   	push   %eax
 8048b31:	68 d8 4d 06 08       	push   $0x8064dd8
 8048b36:	e8 25 f9 ff ff       	call   8048460 <strncmp@plt>
 8048b3b:	83 c4 10             	add    $0x10,%esp
 8048b3e:	85 c0                	test   %eax,%eax
 8048b40:	75 24                	jne    8048b66 <main+0x571>
 8048b42:	83 ec 04             	sub    $0x4,%esp
 8048b45:	6a 04                	push   $0x4
 8048b47:	8d 45 e0             	lea    -0x20(%ebp),%eax
 8048b4a:	83 c0 04             	add    $0x4,%eax
 8048b4d:	50                   	push   %eax
 8048b4e:	68 ec 90 06 08       	push   $0x80690ec
 8048b53:	e8 08 f9 ff ff       	call   8048460 <strncmp@plt>
 8048b58:	83 c4 10             	add    $0x10,%esp
 8048b5b:	85 c0                	test   %eax,%eax
 8048b5d:	75 07                	jne    8048b66 <main+0x571>
 8048b5f:	b8 01 00 00 00       	mov    $0x1,%eax
 8048b64:	eb 05                	jmp    8048b6b <main+0x576>
 8048b66:	b8 00 00 00 00       	mov    $0x0,%eax
 8048b6b:	89 45 d4             	mov    %eax,-0x2c(%ebp)
 8048b6e:	e9 0e 71 00 00       	jmp    804fc81 <main+0x768c>
 8048b73:	81 7d dc ef be ad de 	cmpl   $0xdeadbeef,-0x24(%ebp)
 8048b7a:	74 6b                	je     8048be7 <main+0x5f2>
 8048b7c:	83 ec 04             	sub    $0x4,%esp
 8048b7f:	68 ec 90 06 08       	push   $0x80690ec
 8048b84:	68 d8 4d 06 08       	push   $0x8064dd8
 8048b89:	68 73 fd 04 08       	push   $0x804fd73
 8048b8e:	e8 bd f8 ff ff       	call   8048450 <__isoc99_scanf@plt>
 8048b93:	83 c4 10             	add    $0x10,%esp
 8048b96:	83 7d d4 00          	cmpl   $0x0,-0x2c(%ebp)
 8048b9a:	74 3e                	je     8048bda <main+0x5e5>
 8048b9c:	83 ec 04             	sub    $0x4,%esp
 8048b9f:	6a 04                	push   $0x4
 8048ba1:	8d 45 e0             	lea    -0x20(%ebp),%eax
 8048ba4:	50                   	push   %eax
 8048ba5:	68 d8 4d 06 08       	push   $0x8064dd8
 8048baa:	e8 b1 f8 ff ff       	call   8048460 <strncmp@plt>
 8048baf:	83 c4 10             	add    $0x10,%esp
 8048bb2:	85 c0                	test   %eax,%eax
 8048bb4:	75 24                	jne    8048bda <main+0x5e5>
 8048bb6:	83 ec 04             	sub    $0x4,%esp
 8048bb9:	6a 04                	push   $0x4
 8048bbb:	8d 45 e0             	lea    -0x20(%ebp),%eax
 8048bbe:	83 c0 04             	add    $0x4,%eax
 8048bc1:	50                   	push   %eax
 8048bc2:	68 ec 90 06 08       	push   $0x80690ec
 8048bc7:	e8 94 f8 ff ff       	call   8048460 <strncmp@plt>
 8048bcc:	83 c4 10             	add    $0x10,%esp
 8048bcf:	85 c0                	test   %eax,%eax
 8048bd1:	75 07                	jne    8048bda <main+0x5e5>
 8048bd3:	b8 01 00 00 00       	mov    $0x1,%eax
 8048bd8:	eb 05                	jmp    8048bdf <main+0x5ea>
 8048bda:	b8 00 00 00 00       	mov    $0x0,%eax
 8048bdf:	89 45 d4             	mov    %eax,-0x2c(%ebp)
 8048be2:	e9 9a 70 00 00       	jmp    804fc81 <main+0x768c>
 8048be7:	83 ec 04             	sub    $0x4,%esp
 8048bea:	68 ec 90 06 08       	push   $0x80690ec
 8048bef:	68 d8 4d 06 08       	push   $0x8064dd8
 8048bf4:	68 73 fd 04 08       	push   $0x804fd73
 8048bf9:	e8 52 f8 ff ff       	call   8048450 <__isoc99_scanf@plt>
 8048bfe:	83 c4 10             	add    $0x10,%esp
 8048c01:	83 7d d4 00          	cmpl   $0x0,-0x2c(%ebp)
 8048c05:	74 3e                	je     8048c45 <main+0x650>
 8048c07:	83 ec 04             	sub    $0x4,%esp
 8048c0a:	6a 04                	push   $0x4
 8048c0c:	8d 45 e0             	lea    -0x20(%ebp),%eax
 8048c0f:	50                   	push   %eax
 8048c10:	68 d8 4d 06 08       	push   $0x8064dd8
 8048c15:	e8 46 f8 ff ff       	call   8048460 <strncmp@plt>
 8048c1a:	83 c4 10             	add    $0x10,%esp
 8048c1d:	85 c0                	test   %eax,%eax
 8048c1f:	75 24                	jne    8048c45 <main+0x650>
 8048c21:	83 ec 04             	sub    $0x4,%esp
 8048c24:	6a 04                	push   $0x4
 8048c26:	8d 45 e0             	lea    -0x20(%ebp),%eax
 8048c29:	83 c0 04             	add    $0x4,%eax
 8048c2c:	50                   	push   %eax
 8048c2d:	68 ec 90 06 08       	push   $0x80690ec
 8048c32:	e8 29 f8 ff ff       	call   8048460 <strncmp@plt>
 8048c37:	83 c4 10             	add    $0x10,%esp
 8048c3a:	85 c0                	test   %eax,%eax
 8048c3c:	75 07                	jne    8048c45 <main+0x650>
 8048c3e:	b8 01 00 00 00       	mov    $0x1,%eax
 8048c43:	eb 05                	jmp    8048c4a <main+0x655>
 8048c45:	b8 00 00 00 00       	mov    $0x0,%eax
 8048c4a:	89 45 d4             	mov    %eax,-0x2c(%ebp)
 8048c4d:	e9 2f 70 00 00       	jmp    804fc81 <main+0x768c>
 8048c52:	81 7d dc ef be ad de 	cmpl   $0xdeadbeef,-0x24(%ebp)
 8048c59:	0f 85 df 00 00 00    	jne    8048d3e <main+0x749>
 8048c5f:	81 7d dc ef be ad de 	cmpl   $0xdeadbeef,-0x24(%ebp)
 8048c66:	75 6b                	jne    8048cd3 <main+0x6de>
 8048c68:	83 ec 04             	sub    $0x4,%esp
 8048c6b:	68 ec 90 06 08       	push   $0x80690ec
 8048c70:	68 d8 4d 06 08       	push   $0x8064dd8
 8048c75:	68 73 fd 04 08       	push   $0x804fd73
 8048c7a:	e8 d1 f7 ff ff       	call   8048450 <__isoc99_scanf@plt>
 8048c7f:	83 c4 10             	add    $0x10,%esp
 8048c82:	83 7d d4 00          	cmpl   $0x0,-0x2c(%ebp)
 8048c86:	74 3e                	je     8048cc6 <main+0x6d1>
 8048c88:	83 ec 04             	sub    $0x4,%esp
 8048c8b:	6a 04                	push   $0x4
 8048c8d:	8d 45 e0             	lea    -0x20(%ebp),%eax
 8048c90:	50                   	push   %eax
 8048c91:	68 d8 4d 06 08       	push   $0x8064dd8
 8048c96:	e8 c5 f7 ff ff       	call   8048460 <strncmp@plt>
 8048c9b:	83 c4 10             	add    $0x10,%esp
 8048c9e:	85 c0                	test   %eax,%eax
 8048ca0:	75 24                	jne    8048cc6 <main+0x6d1>
 8048ca2:	83 ec 04             	sub    $0x4,%esp
 8048ca5:	6a 04                	push   $0x4
 8048ca7:	8d 45 e0             	lea    -0x20(%ebp),%eax
 8048caa:	83 c0 04             	add    $0x4,%eax
 8048cad:	50                   	push   %eax
 8048cae:	68 ec 90 06 08       	push   $0x80690ec
 8048cb3:	e8 a8 f7 ff ff       	call   8048460 <strncmp@plt>
 8048cb8:	83 c4 10             	add    $0x10,%esp
 8048cbb:	85 c0                	test   %eax,%eax
 8048cbd:	75 07                	jne    8048cc6 <main+0x6d1>
 8048cbf:	b8 01 00 00 00       	mov    $0x1,%eax
 8048cc4:	eb 05                	jmp    8048ccb <main+0x6d6>
 8048cc6:	b8 00 00 00 00       	mov    $0x0,%eax
 8048ccb:	89 45 d4             	mov    %eax,-0x2c(%ebp)
 8048cce:	e9 ae 6f 00 00       	jmp    804fc81 <main+0x768c>
 8048cd3:	83 ec 04             	sub    $0x4,%esp
 8048cd6:	68 ec 90 06 08       	push   $0x80690ec
 8048cdb:	68 d8 4d 06 08       	push   $0x8064dd8
 8048ce0:	68 73 fd 04 08       	push   $0x804fd73
 8048ce5:	e8 66 f7 ff ff       	call   8048450 <__isoc99_scanf@plt>
 8048cea:	83 c4 10             	add    $0x10,%esp
 8048ced:	83 7d d4 00          	cmpl   $0x0,-0x2c(%ebp)
 8048cf1:	74 3e                	je     8048d31 <main+0x73c>
 8048cf3:	83 ec 04             	sub    $0x4,%esp
 8048cf6:	6a 04                	push   $0x4
 8048cf8:	8d 45 e0             	lea    -0x20(%ebp),%eax
 8048cfb:	50                   	push   %eax
 8048cfc:	68 d8 4d 06 08       	push   $0x8064dd8
 8048d01:	e8 5a f7 ff ff       	call   8048460 <strncmp@plt>
 8048d06:	83 c4 10             	add    $0x10,%esp
 8048d09:	85 c0                	test   %eax,%eax
 8048d0b:	75 24                	jne    8048d31 <main+0x73c>
 8048d0d:	83 ec 04             	sub    $0x4,%esp
 8048d10:	6a 04                	push   $0x4
 8048d12:	8d 45 e0             	lea    -0x20(%ebp),%eax
 8048d15:	83 c0 04             	add    $0x4,%eax
 8048d18:	50                   	push   %eax
 8048d19:	68 ec 90 06 08       	push   $0x80690ec
 8048d1e:	e8 3d f7 ff ff       	call   8048460 <strncmp@plt>
 8048d23:	83 c4 10             	add    $0x10,%esp
 8048d26:	85 c0                	test   %eax,%eax
 8048d28:	75 07                	jne    8048d31 <main+0x73c>
 8048d2a:	b8 01 00 00 00       	mov    $0x1,%eax
 8048d2f:	eb 05                	jmp    8048d36 <main+0x741>
 8048d31:	b8 00 00 00 00       	mov    $0x0,%eax
 8048d36:	89 45 d4             	mov    %eax,-0x2c(%ebp)
 8048d39:	e9 43 6f 00 00       	jmp    804fc81 <main+0x768c>
 8048d3e:	81 7d dc ef be ad de 	cmpl   $0xdeadbeef,-0x24(%ebp)
 8048d45:	74 6b                	je     8048db2 <main+0x7bd>
 8048d47:	83 ec 04             	sub    $0x4,%esp
 8048d4a:	68 ec 90 06 08       	push   $0x80690ec
 8048d4f:	68 d8 4d 06 08       	push   $0x8064dd8
 8048d54:	68 73 fd 04 08       	push   $0x804fd73
 8048d59:	e8 f2 f6 ff ff       	call   8048450 <__isoc99_scanf@plt>
 8048d5e:	83 c4 10             	add    $0x10,%esp
 8048d61:	83 7d d4 00          	cmpl   $0x0,-0x2c(%ebp)
 8048d65:	74 3e                	je     8048da5 <main+0x7b0>
 8048d67:	83 ec 04             	sub    $0x4,%esp
 8048d6a:	6a 04                	push   $0x4
 8048d6c:	8d 45 e0             	lea    -0x20(%ebp),%eax
 8048d6f:	50                   	push   %eax
 8048d70:	68 d8 4d 06 08       	push   $0x8064dd8
 8048d75:	e8 e6 f6 ff ff       	call   8048460 <strncmp@plt>
 8048d7a:	83 c4 10             	add    $0x10,%esp
 8048d7d:	85 c0                	test   %eax,%eax
 8048d7f:	75 24                	jne    8048da5 <main+0x7b0>
 8048d81:	83 ec 04             	sub    $0x4,%esp
 8048d84:	6a 04                	push   $0x4
 8048d86:	8d 45 e0             	lea    -0x20(%ebp),%eax
 8048d89:	83 c0 04             	add    $0x4,%eax
 8048d8c:	50                   	push   %eax
 8048d8d:	68 ec 90 06 08       	push   $0x80690ec
 8048d92:	e8 c9 f6 ff ff       	call   8048460 <strncmp@plt>
 8048d97:	83 c4 10             	add    $0x10,%esp
 8048d9a:	85 c0                	test   %eax,%eax
 8048d9c:	75 07                	jne    8048da5 <main+0x7b0>
 8048d9e:	b8 01 00 00 00       	mov    $0x1,%eax
 8048da3:	eb 05                	jmp    8048daa <main+0x7b5>
 8048da5:	b8 00 00 00 00       	mov    $0x0,%eax
 8048daa:	89 45 d4             	mov    %eax,-0x2c(%ebp)
 8048dad:	e9 cf 6e 00 00       	jmp    804fc81 <main+0x768c>
 8048db2:	83 ec 04             	sub    $0x4,%esp
 8048db5:	68 ec 90 06 08       	push   $0x80690ec
 8048dba:	68 d8 4d 06 08       	push   $0x8064dd8
 8048dbf:	68 73 fd 04 08       	push   $0x804fd73
 8048dc4:	e8 87 f6 ff ff       	call   8048450 <__isoc99_scanf@plt>
 8048dc9:	83 c4 10             	add    $0x10,%esp
 8048dcc:	83 7d d4 00          	cmpl   $0x0,-0x2c(%ebp)
 8048dd0:	74 3e                	je     8048e10 <main+0x81b>
 8048dd2:	83 ec 04             	sub    $0x4,%esp
 8048dd5:	6a 04                	push   $0x4
 8048dd7:	8d 45 e0             	lea    -0x20(%ebp),%eax
 8048dda:	50                   	push   %eax
 8048ddb:	68 d8 4d 06 08       	push   $0x8064dd8
 8048de0:	e8 7b f6 ff ff       	call   8048460 <strncmp@plt>
 8048de5:	83 c4 10             	add    $0x10,%esp
 8048de8:	85 c0                	test   %eax,%eax
 8048dea:	75 24                	jne    8048e10 <main+0x81b>
 8048dec:	83 ec 04             	sub    $0x4,%esp
 8048def:	6a 04                	push   $0x4
 8048df1:	8d 45 e0             	lea    -0x20(%ebp),%eax
 8048df4:	83 c0 04             	add    $0x4,%eax
 8048df7:	50                   	push   %eax
 8048df8:	68 ec 90 06 08       	push   $0x80690ec
 8048dfd:	e8 5e f6 ff ff       	call   8048460 <strncmp@plt>
 8048e02:	83 c4 10             	add    $0x10,%esp
 8048e05:	85 c0                	test   %eax,%eax
 8048e07:	75 07                	jne    8048e10 <main+0x81b>
 8048e09:	b8 01 00 00 00       	mov    $0x1,%eax
 8048e0e:	eb 05                	jmp    8048e15 <main+0x820>
 8048e10:	b8 00 00 00 00       	mov    $0x0,%eax
 8048e15:	89 45 d4             	mov    %eax,-0x2c(%ebp)
 8048e18:	e9 64 6e 00 00       	jmp    804fc81 <main+0x768c>
 8048e1d:	81 7d dc ef be ad de 	cmpl   $0xdeadbeef,-0x24(%ebp)
 8048e24:	0f 84 a3 03 00 00    	je     80491cd <main+0xbd8>
 8048e2a:	81 7d dc ef be ad de 	cmpl   $0xdeadbeef,-0x24(%ebp)
 8048e31:	0f 85 cb 01 00 00    	jne    8049002 <main+0xa0d>
 8048e37:	81 7d dc ef be ad de 	cmpl   $0xdeadbeef,-0x24(%ebp)
 8048e3e:	0f 85 df 00 00 00    	jne    8048f23 <main+0x92e>
 8048e44:	81 7d dc ef be ad de 	cmpl   $0xdeadbeef,-0x24(%ebp)
 8048e4b:	74 6b                	je     8048eb8 <main+0x8c3>
 8048e4d:	83 ec 04             	sub    $0x4,%esp
 8048e50:	68 ec 90 06 08       	push   $0x80690ec
 8048e55:	68 d8 4d 06 08       	push   $0x8064dd8
 8048e5a:	68 73 fd 04 08       	push   $0x804fd73
 8048e5f:	e8 ec f5 ff ff       	call   8048450 <__isoc99_scanf@plt>
 8048e64:	83 c4 10             	add    $0x10,%esp
 8048e67:	83 7d d4 00          	cmpl   $0x0,-0x2c(%ebp)
 8048e6b:	74 3e                	je     8048eab <main+0x8b6>
 8048e6d:	83 ec 04             	sub    $0x4,%esp
 8048e70:	6a 04                	push   $0x4
 8048e72:	8d 45 e0             	lea    -0x20(%ebp),%eax
 8048e75:	50                   	push   %eax
 8048e76:	68 d8 4d 06 08       	push   $0x8064dd8
 8048e7b:	e8 e0 f5 ff ff       	call   8048460 <strncmp@plt>
 8048e80:	83 c4 10             	add    $0x10,%esp
 8048e83:	85 c0                	test   %eax,%eax
 8048e85:	75 24                	jne    8048eab <main+0x8b6>
 8048e87:	83 ec 04             	sub    $0x4,%esp
 8048e8a:	6a 04                	push   $0x4
 8048e8c:	8d 45 e0             	lea    -0x20(%ebp),%eax
 8048e8f:	83 c0 04             	add    $0x4,%eax
 8048e92:	50                   	push   %eax
 8048e93:	68 ec 90 06 08       	push   $0x80690ec
 8048e98:	e8 c3 f5 ff ff       	call   8048460 <strncmp@plt>
 8048e9d:	83 c4 10             	add    $0x10,%esp
 8048ea0:	85 c0                	test   %eax,%eax
 8048ea2:	75 07                	jne    8048eab <main+0x8b6>
 8048ea4:	b8 01 00 00 00       	mov    $0x1,%eax
 8048ea9:	eb 05                	jmp    8048eb0 <main+0x8bb>
 8048eab:	b8 00 00 00 00       	mov    $0x0,%eax
 8048eb0:	89 45 d4             	mov    %eax,-0x2c(%ebp)
 8048eb3:	e9 c9 6d 00 00       	jmp    804fc81 <main+0x768c>
 8048eb8:	83 ec 04             	sub    $0x4,%esp
 8048ebb:	68 ec 90 06 08       	push   $0x80690ec
 8048ec0:	68 d8 4d 06 08       	push   $0x8064dd8
 8048ec5:	68 73 fd 04 08       	push   $0x804fd73
 8048eca:	e8 81 f5 ff ff       	call   8048450 <__isoc99_scanf@plt>
 8048ecf:	83 c4 10             	add    $0x10,%esp
 8048ed2:	83 7d d4 00          	cmpl   $0x0,-0x2c(%ebp)
 8048ed6:	74 3e                	je     8048f16 <main+0x921>
 8048ed8:	83 ec 04             	sub    $0x4,%esp
 8048edb:	6a 04                	push   $0x4
 8048edd:	8d 45 e0             	lea    -0x20(%ebp),%eax
 8048ee0:	50                   	push   %eax
 8048ee1:	68 d8 4d 06 08       	push   $0x8064dd8
 8048ee6:	e8 75 f5 ff ff       	call   8048460 <strncmp@plt>
 8048eeb:	83 c4 10             	add    $0x10,%esp
 8048eee:	85 c0                	test   %eax,%eax
 8048ef0:	75 24                	jne    8048f16 <main+0x921>
 8048ef2:	83 ec 04             	sub    $0x4,%esp
 8048ef5:	6a 04                	push   $0x4
 8048ef7:	8d 45 e0             	lea    -0x20(%ebp),%eax
 8048efa:	83 c0 04             	add    $0x4,%eax
 8048efd:	50                   	push   %eax
 8048efe:	68 ec 90 06 08       	push   $0x80690ec
 8048f03:	e8 58 f5 ff ff       	call   8048460 <strncmp@plt>
 8048f08:	83 c4 10             	add    $0x10,%esp
 8048f0b:	85 c0                	test   %eax,%eax
 8048f0d:	75 07                	jne    8048f16 <main+0x921>
 8048f0f:	b8 01 00 00 00       	mov    $0x1,%eax
 8048f14:	eb 05                	jmp    8048f1b <main+0x926>
 8048f16:	b8 00 00 00 00       	mov    $0x0,%eax
 8048f1b:	89 45 d4             	mov    %eax,-0x2c(%ebp)
 8048f1e:	e9 5e 6d 00 00       	jmp    804fc81 <main+0x768c>
 8048f23:	81 7d dc ef be ad de 	cmpl   $0xdeadbeef,-0x24(%ebp)
 8048f2a:	74 6b                	je     8048f97 <main+0x9a2>
 8048f2c:	83 ec 04             	sub    $0x4,%esp
 8048f2f:	68 ec 90 06 08       	push   $0x80690ec
 8048f34:	68 d8 4d 06 08       	push   $0x8064dd8
 8048f39:	68 73 fd 04 08       	push   $0x804fd73
 8048f3e:	e8 0d f5 ff ff       	call   8048450 <__isoc99_scanf@plt>
 8048f43:	83 c4 10             	add    $0x10,%esp
 8048f46:	83 7d d4 00          	cmpl   $0x0,-0x2c(%ebp)
 8048f4a:	74 3e                	je     8048f8a <main+0x995>
 8048f4c:	83 ec 04             	sub    $0x4,%esp
 8048f4f:	6a 04                	push   $0x4
 8048f51:	8d 45 e0             	lea    -0x20(%ebp),%eax
 8048f54:	50                   	push   %eax
 8048f55:	68 d8 4d 06 08       	push   $0x8064dd8
 8048f5a:	e8 01 f5 ff ff       	call   8048460 <strncmp@plt>
 8048f5f:	83 c4 10             	add    $0x10,%esp
 8048f62:	85 c0                	test   %eax,%eax
 8048f64:	75 24                	jne    8048f8a <main+0x995>
 8048f66:	83 ec 04             	sub    $0x4,%esp
 8048f69:	6a 04                	push   $0x4
 8048f6b:	8d 45 e0             	lea    -0x20(%ebp),%eax
 8048f6e:	83 c0 04             	add    $0x4,%eax
 8048f71:	50                   	push   %eax
 8048f72:	68 ec 90 06 08       	push   $0x80690ec
 8048f77:	e8 e4 f4 ff ff       	call   8048460 <strncmp@plt>
 8048f7c:	83 c4 10             	add    $0x10,%esp
 8048f7f:	85 c0                	test   %eax,%eax
 8048f81:	75 07                	jne    8048f8a <main+0x995>
 8048f83:	b8 01 00 00 00       	mov    $0x1,%eax
 8048f88:	eb 05                	jmp    8048f8f <main+0x99a>
 8048f8a:	b8 00 00 00 00       	mov    $0x0,%eax
 8048f8f:	89 45 d4             	mov    %eax,-0x2c(%ebp)
 8048f92:	e9 ea 6c 00 00       	jmp    804fc81 <main+0x768c>
 8048f97:	83 ec 04             	sub    $0x4,%esp
 8048f9a:	68 ec 90 06 08       	push   $0x80690ec
 8048f9f:	68 d8 4d 06 08       	push   $0x8064dd8
 8048fa4:	68 73 fd 04 08       	push   $0x804fd73
 8048fa9:	e8 a2 f4 ff ff       	call   8048450 <__isoc99_scanf@plt>
 8048fae:	83 c4 10             	add    $0x10,%esp
 8048fb1:	83 7d d4 00          	cmpl   $0x0,-0x2c(%ebp)
 8048fb5:	74 3e                	je     8048ff5 <main+0xa00>
 8048fb7:	83 ec 04             	sub    $0x4,%esp
 8048fba:	6a 04                	push   $0x4
 8048fbc:	8d 45 e0             	lea    -0x20(%ebp),%eax
 8048fbf:	50                   	push   %eax
 8048fc0:	68 d8 4d 06 08       	push   $0x8064dd8
 8048fc5:	e8 96 f4 ff ff       	call   8048460 <strncmp@plt>
 8048fca:	83 c4 10             	add    $0x10,%esp
 8048fcd:	85 c0                	test   %eax,%eax
 8048fcf:	75 24                	jne    8048ff5 <main+0xa00>
 8048fd1:	83 ec 04             	sub    $0x4,%esp
 8048fd4:	6a 04                	push   $0x4
 8048fd6:	8d 45 e0             	lea    -0x20(%ebp),%eax
 8048fd9:	83 c0 04             	add    $0x4,%eax
 8048fdc:	50                   	push   %eax
 8048fdd:	68 ec 90 06 08       	push   $0x80690ec
 8048fe2:	e8 79 f4 ff ff       	call   8048460 <strncmp@plt>
 8048fe7:	83 c4 10             	add    $0x10,%esp
 8048fea:	85 c0                	test   %eax,%eax
 8048fec:	75 07                	jne    8048ff5 <main+0xa00>
 8048fee:	b8 01 00 00 00       	mov    $0x1,%eax
 8048ff3:	eb 05                	jmp    8048ffa <main+0xa05>
 8048ff5:	b8 00 00 00 00       	mov    $0x0,%eax
 8048ffa:	89 45 d4             	mov    %eax,-0x2c(%ebp)
 8048ffd:	e9 7f 6c 00 00       	jmp    804fc81 <main+0x768c>
 8049002:	81 7d dc ef be ad de 	cmpl   $0xdeadbeef,-0x24(%ebp)
 8049009:	0f 84 df 00 00 00    	je     80490ee <main+0xaf9>
 804900f:	81 7d dc ef be ad de 	cmpl   $0xdeadbeef,-0x24(%ebp)
 8049016:	75 6b                	jne    8049083 <main+0xa8e>
 8049018:	83 ec 04             	sub    $0x4,%esp
 804901b:	68 ec 90 06 08       	push   $0x80690ec
 8049020:	68 d8 4d 06 08       	push   $0x8064dd8
 8049025:	68 73 fd 04 08       	push   $0x804fd73
 804902a:	e8 21 f4 ff ff       	call   8048450 <__isoc99_scanf@plt>
 804902f:	83 c4 10             	add    $0x10,%esp
 8049032:	83 7d d4 00          	cmpl   $0x0,-0x2c(%ebp)
 8049036:	74 3e                	je     8049076 <main+0xa81>
 8049038:	83 ec 04             	sub    $0x4,%esp
 804903b:	6a 04                	push   $0x4
 804903d:	8d 45 e0             	lea    -0x20(%ebp),%eax
 8049040:	50                   	push   %eax
 8049041:	68 d8 4d 06 08       	push   $0x8064dd8
 8049046:	e8 15 f4 ff ff       	call   8048460 <strncmp@plt>
 804904b:	83 c4 10             	add    $0x10,%esp
 804904e:	85 c0                	test   %eax,%eax
 8049050:	75 24                	jne    8049076 <main+0xa81>
 8049052:	83 ec 04             	sub    $0x4,%esp
 8049055:	6a 04                	push   $0x4
 8049057:	8d 45 e0             	lea    -0x20(%ebp),%eax
 804905a:	83 c0 04             	add    $0x4,%eax
 804905d:	50                   	push   %eax
 804905e:	68 ec 90 06 08       	push   $0x80690ec
 8049063:	e8 f8 f3 ff ff       	call   8048460 <strncmp@plt>
 8049068:	83 c4 10             	add    $0x10,%esp
 804906b:	85 c0                	test   %eax,%eax
 804906d:	75 07                	jne    8049076 <main+0xa81>
 804906f:	b8 01 00 00 00       	mov    $0x1,%eax
 8049074:	eb 05                	jmp    804907b <main+0xa86>
 8049076:	b8 00 00 00 00       	mov    $0x0,%eax
 804907b:	89 45 d4             	mov    %eax,-0x2c(%ebp)
 804907e:	e9 fe 6b 00 00       	jmp    804fc81 <main+0x768c>
 8049083:	83 ec 04             	sub    $0x4,%esp
 8049086:	68 ec 90 06 08       	push   $0x80690ec
 804908b:	68 d8 4d 06 08       	push   $0x8064dd8
 8049090:	68 73 fd 04 08       	push   $0x804fd73
 8049095:	e8 b6 f3 ff ff       	call   8048450 <__isoc99_scanf@plt>
 804909a:	83 c4 10             	add    $0x10,%esp
 804909d:	83 7d d4 00          	cmpl   $0x0,-0x2c(%ebp)
 80490a1:	74 3e                	je     80490e1 <main+0xaec>
 80490a3:	83 ec 04             	sub    $0x4,%esp
 80490a6:	6a 04                	push   $0x4
 80490a8:	8d 45 e0             	lea    -0x20(%ebp),%eax
 80490ab:	50                   	push   %eax
 80490ac:	68 d8 4d 06 08       	push   $0x8064dd8
 80490b1:	e8 aa f3 ff ff       	call   8048460 <strncmp@plt>
 80490b6:	83 c4 10             	add    $0x10,%esp
 80490b9:	85 c0                	test   %eax,%eax
 80490bb:	75 24                	jne    80490e1 <main+0xaec>
 80490bd:	83 ec 04             	sub    $0x4,%esp
 80490c0:	6a 04                	push   $0x4
 80490c2:	8d 45 e0             	lea    -0x20(%ebp),%eax
 80490c5:	83 c0 04             	add    $0x4,%eax
 80490c8:	50                   	push   %eax
 80490c9:	68 ec 90 06 08       	push   $0x80690ec
 80490ce:	e8 8d f3 ff ff       	call   8048460 <strncmp@plt>
 80490d3:	83 c4 10             	add    $0x10,%esp
 80490d6:	85 c0                	test   %eax,%eax
 80490d8:	75 07                	jne    80490e1 <main+0xaec>
 80490da:	b8 01 00 00 00       	mov    $0x1,%eax
 80490df:	eb 05                	jmp    80490e6 <main+0xaf1>
 80490e1:	b8 00 00 00 00       	mov    $0x0,%eax
 80490e6:	89 45 d4             	mov    %eax,-0x2c(%ebp)
 80490e9:	e9 93 6b 00 00       	jmp    804fc81 <main+0x768c>
 80490ee:	81 7d dc ef be ad de 	cmpl   $0xdeadbeef,-0x24(%ebp)
 80490f5:	75 6b                	jne    8049162 <main+0xb6d>
 80490f7:	83 ec 04             	sub    $0x4,%esp
 80490fa:	68 ec 90 06 08       	push   $0x80690ec
 80490ff:	68 d8 4d 06 08       	push   $0x8064dd8
 8049104:	68 73 fd 04 08       	push   $0x804fd73
 8049109:	e8 42 f3 ff ff       	call   8048450 <__isoc99_scanf@plt>
 804910e:	83 c4 10             	add    $0x10,%esp
 8049111:	83 7d d4 00          	cmpl   $0x0,-0x2c(%ebp)
 8049115:	74 3e                	je     8049155 <main+0xb60>
 8049117:	83 ec 04             	sub    $0x4,%esp
 804911a:	6a 04                	push   $0x4
 804911c:	8d 45 e0             	lea    -0x20(%ebp),%eax
 804911f:	50                   	push   %eax
 8049120:	68 d8 4d 06 08       	push   $0x8064dd8
 8049125:	e8 36 f3 ff ff       	call   8048460 <strncmp@plt>
 804912a:	83 c4 10             	add    $0x10,%esp
 804912d:	85 c0                	test   %eax,%eax
 804912f:	75 24                	jne    8049155 <main+0xb60>
 8049131:	83 ec 04             	sub    $0x4,%esp
 8049134:	6a 04                	push   $0x4
 8049136:	8d 45 e0             	lea    -0x20(%ebp),%eax
 8049139:	83 c0 04             	add    $0x4,%eax
 804913c:	50                   	push   %eax
 804913d:	68 ec 90 06 08       	push   $0x80690ec
 8049142:	e8 19 f3 ff ff       	call   8048460 <strncmp@plt>
 8049147:	83 c4 10             	add    $0x10,%esp
 804914a:	85 c0                	test   %eax,%eax
 804914c:	75 07                	jne    8049155 <main+0xb60>
 804914e:	b8 01 00 00 00       	mov    $0x1,%eax
 8049153:	eb 05                	jmp    804915a <main+0xb65>
 8049155:	b8 00 00 00 00       	mov    $0x0,%eax
 804915a:	89 45 d4             	mov    %eax,-0x2c(%ebp)
 804915d:	e9 1f 6b 00 00       	jmp    804fc81 <main+0x768c>
 8049162:	83 ec 04             	sub    $0x4,%esp
 8049165:	68 ec 90 06 08       	push   $0x80690ec
 804916a:	68 d8 4d 06 08       	push   $0x8064dd8
 804916f:	68 73 fd 04 08       	push   $0x804fd73
 8049174:	e8 d7 f2 ff ff       	call   8048450 <__isoc99_scanf@plt>
 8049179:	83 c4 10             	add    $0x10,%esp
 804917c:	83 7d d4 00          	cmpl   $0x0,-0x2c(%ebp)
 8049180:	74 3e                	je     80491c0 <main+0xbcb>
 8049182:	83 ec 04             	sub    $0x4,%esp
 8049185:	6a 04                	push   $0x4
 8049187:	8d 45 e0             	lea    -0x20(%ebp),%eax
 804918a:	50                   	push   %eax
 804918b:	68 d8 4d 06 08       	push   $0x8064dd8
 8049190:	e8 cb f2 ff ff       	call   8048460 <strncmp@plt>
 8049195:	83 c4 10             	add    $0x10,%esp
 8049198:	85 c0                	test   %eax,%eax
 804919a:	75 24                	jne    80491c0 <main+0xbcb>
 804919c:	83 ec 04             	sub    $0x4,%esp
 804919f:	6a 04                	push   $0x4
 80491a1:	8d 45 e0             	lea    -0x20(%ebp),%eax
 80491a4:	83 c0 04             	add    $0x4,%eax
 80491a7:	50                   	push   %eax
 80491a8:	68 ec 90 06 08       	push   $0x80690ec
 80491ad:	e8 ae f2 ff ff       	call   8048460 <strncmp@plt>
 80491b2:	83 c4 10             	add    $0x10,%esp
 80491b5:	85 c0                	test   %eax,%eax
 80491b7:	75 07                	jne    80491c0 <main+0xbcb>
 80491b9:	b8 01 00 00 00       	mov    $0x1,%eax
 80491be:	eb 05                	jmp    80491c5 <main+0xbd0>
 80491c0:	b8 00 00 00 00       	mov    $0x0,%eax
 80491c5:	89 45 d4             	mov    %eax,-0x2c(%ebp)
 80491c8:	e9 b4 6a 00 00       	jmp    804fc81 <main+0x768c>
 80491cd:	81 7d dc ef be ad de 	cmpl   $0xdeadbeef,-0x24(%ebp)
 80491d4:	0f 85 cb 01 00 00    	jne    80493a5 <main+0xdb0>
 80491da:	81 7d dc ef be ad de 	cmpl   $0xdeadbeef,-0x24(%ebp)
 80491e1:	0f 85 df 00 00 00    	jne    80492c6 <main+0xcd1>
 80491e7:	81 7d dc ef be ad de 	cmpl   $0xdeadbeef,-0x24(%ebp)
 80491ee:	75 6b                	jne    804925b <main+0xc66>
 80491f0:	83 ec 04             	sub    $0x4,%esp
 80491f3:	68 ec 90 06 08       	push   $0x80690ec
 80491f8:	68 d8 4d 06 08       	push   $0x8064dd8
 80491fd:	68 73 fd 04 08       	push   $0x804fd73
 8049202:	e8 49 f2 ff ff       	call   8048450 <__isoc99_scanf@plt>
 8049207:	83 c4 10             	add    $0x10,%esp
 804920a:	83 7d d4 00          	cmpl   $0x0,-0x2c(%ebp)
 804920e:	74 3e                	je     804924e <main+0xc59>
 8049210:	83 ec 04             	sub    $0x4,%esp
 8049213:	6a 04                	push   $0x4
 8049215:	8d 45 e0             	lea    -0x20(%ebp),%eax
 8049218:	50                   	push   %eax
 8049219:	68 d8 4d 06 08       	push   $0x8064dd8
 804921e:	e8 3d f2 ff ff       	call   8048460 <strncmp@plt>
 8049223:	83 c4 10             	add    $0x10,%esp
 8049226:	85 c0                	test   %eax,%eax
 8049228:	75 24                	jne    804924e <main+0xc59>
 804922a:	83 ec 04             	sub    $0x4,%esp
 804922d:	6a 04                	push   $0x4
 804922f:	8d 45 e0             	lea    -0x20(%ebp),%eax
 8049232:	83 c0 04             	add    $0x4,%eax
 8049235:	50                   	push   %eax
 8049236:	68 ec 90 06 08       	push   $0x80690ec
 804923b:	e8 20 f2 ff ff       	call   8048460 <strncmp@plt>
 8049240:	83 c4 10             	add    $0x10,%esp
 8049243:	85 c0                	test   %eax,%eax
 8049245:	75 07                	jne    804924e <main+0xc59>
 8049247:	b8 01 00 00 00       	mov    $0x1,%eax
 804924c:	eb 05                	jmp    8049253 <main+0xc5e>
 804924e:	b8 00 00 00 00       	mov    $0x0,%eax
 8049253:	89 45 d4             	mov    %eax,-0x2c(%ebp)
 8049256:	e9 26 6a 00 00       	jmp    804fc81 <main+0x768c>
 804925b:	83 ec 04             	sub    $0x4,%esp
 804925e:	68 ec 90 06 08       	push   $0x80690ec
 8049263:	68 d8 4d 06 08       	push   $0x8064dd8
 8049268:	68 73 fd 04 08       	push   $0x804fd73
 804926d:	e8 de f1 ff ff       	call   8048450 <__isoc99_scanf@plt>
 8049272:	83 c4 10             	add    $0x10,%esp
 8049275:	83 7d d4 00          	cmpl   $0x0,-0x2c(%ebp)
 8049279:	74 3e                	je     80492b9 <main+0xcc4>
 804927b:	83 ec 04             	sub    $0x4,%esp
 804927e:	6a 04                	push   $0x4
 8049280:	8d 45 e0             	lea    -0x20(%ebp),%eax
 8049283:	50                   	push   %eax
 8049284:	68 d8 4d 06 08       	push   $0x8064dd8
 8049289:	e8 d2 f1 ff ff       	call   8048460 <strncmp@plt>
 804928e:	83 c4 10             	add    $0x10,%esp
 8049291:	85 c0                	test   %eax,%eax
 8049293:	75 24                	jne    80492b9 <main+0xcc4>
 8049295:	83 ec 04             	sub    $0x4,%esp
 8049298:	6a 04                	push   $0x4
 804929a:	8d 45 e0             	lea    -0x20(%ebp),%eax
 804929d:	83 c0 04             	add    $0x4,%eax
 80492a0:	50                   	push   %eax
 80492a1:	68 ec 90 06 08       	push   $0x80690ec
 80492a6:	e8 b5 f1 ff ff       	call   8048460 <strncmp@plt>
 80492ab:	83 c4 10             	add    $0x10,%esp
 80492ae:	85 c0                	test   %eax,%eax
 80492b0:	75 07                	jne    80492b9 <main+0xcc4>
 80492b2:	b8 01 00 00 00       	mov    $0x1,%eax
 80492b7:	eb 05                	jmp    80492be <main+0xcc9>
 80492b9:	b8 00 00 00 00       	mov    $0x0,%eax
 80492be:	89 45 d4             	mov    %eax,-0x2c(%ebp)
 80492c1:	e9 bb 69 00 00       	jmp    804fc81 <main+0x768c>
 80492c6:	81 7d dc ef be ad de 	cmpl   $0xdeadbeef,-0x24(%ebp)
 80492cd:	74 6b                	je     804933a <main+0xd45>
 80492cf:	83 ec 04             	sub    $0x4,%esp
 80492d2:	68 ec 90 06 08       	push   $0x80690ec
 80492d7:	68 d8 4d 06 08       	push   $0x8064dd8
 80492dc:	68 73 fd 04 08       	push   $0x804fd73
 80492e1:	e8 6a f1 ff ff       	call   8048450 <__isoc99_scanf@plt>
 80492e6:	83 c4 10             	add    $0x10,%esp
 80492e9:	83 7d d4 00          	cmpl   $0x0,-0x2c(%ebp)
 80492ed:	74 3e                	je     804932d <main+0xd38>
 80492ef:	83 ec 04             	sub    $0x4,%esp
 80492f2:	6a 04                	push   $0x4
 80492f4:	8d 45 e0             	lea    -0x20(%ebp),%eax
 80492f7:	50                   	push   %eax
 80492f8:	68 d8 4d 06 08       	push   $0x8064dd8
 80492fd:	e8 5e f1 ff ff       	call   8048460 <strncmp@plt>
 8049302:	83 c4 10             	add    $0x10,%esp
 8049305:	85 c0                	test   %eax,%eax
 8049307:	75 24                	jne    804932d <main+0xd38>
 8049309:	83 ec 04             	sub    $0x4,%esp
 804930c:	6a 04                	push   $0x4
 804930e:	8d 45 e0             	lea    -0x20(%ebp),%eax
 8049311:	83 c0 04             	add    $0x4,%eax
 8049314:	50                   	push   %eax
 8049315:	68 ec 90 06 08       	push   $0x80690ec
 804931a:	e8 41 f1 ff ff       	call   8048460 <strncmp@plt>
 804931f:	83 c4 10             	add    $0x10,%esp
 8049322:	85 c0                	test   %eax,%eax
 8049324:	75 07                	jne    804932d <main+0xd38>
 8049326:	b8 01 00 00 00       	mov    $0x1,%eax
 804932b:	eb 05                	jmp    8049332 <main+0xd3d>
 804932d:	b8 00 00 00 00       	mov    $0x0,%eax
 8049332:	89 45 d4             	mov    %eax,-0x2c(%ebp)
 8049335:	e9 47 69 00 00       	jmp    804fc81 <main+0x768c>
 804933a:	83 ec 04             	sub    $0x4,%esp
 804933d:	68 ec 90 06 08       	push   $0x80690ec
 8049342:	68 d8 4d 06 08       	push   $0x8064dd8
 8049347:	68 73 fd 04 08       	push   $0x804fd73
 804934c:	e8 ff f0 ff ff       	call   8048450 <__isoc99_scanf@plt>
 8049351:	83 c4 10             	add    $0x10,%esp
 8049354:	83 7d d4 00          	cmpl   $0x0,-0x2c(%ebp)
 8049358:	74 3e                	je     8049398 <main+0xda3>
 804935a:	83 ec 04             	sub    $0x4,%esp
 804935d:	6a 04                	push   $0x4
 804935f:	8d 45 e0             	lea    -0x20(%ebp),%eax
 8049362:	50                   	push   %eax
 8049363:	68 d8 4d 06 08       	push   $0x8064dd8
 8049368:	e8 f3 f0 ff ff       	call   8048460 <strncmp@plt>
 804936d:	83 c4 10             	add    $0x10,%esp
 8049370:	85 c0                	test   %eax,%eax
 8049372:	75 24                	jne    8049398 <main+0xda3>
 8049374:	83 ec 04             	sub    $0x4,%esp
 8049377:	6a 04                	push   $0x4
 8049379:	8d 45 e0             	lea    -0x20(%ebp),%eax
 804937c:	83 c0 04             	add    $0x4,%eax
 804937f:	50                   	push   %eax
 8049380:	68 ec 90 06 08       	push   $0x80690ec
 8049385:	e8 d6 f0 ff ff       	call   8048460 <strncmp@plt>
 804938a:	83 c4 10             	add    $0x10,%esp
 804938d:	85 c0                	test   %eax,%eax
 804938f:	75 07                	jne    8049398 <main+0xda3>
 8049391:	b8 01 00 00 00       	mov    $0x1,%eax
 8049396:	eb 05                	jmp    804939d <main+0xda8>
 8049398:	b8 00 00 00 00       	mov    $0x0,%eax
 804939d:	89 45 d4             	mov    %eax,-0x2c(%ebp)
 80493a0:	e9 dc 68 00 00       	jmp    804fc81 <main+0x768c>
 80493a5:	81 7d dc ef be ad de 	cmpl   $0xdeadbeef,-0x24(%ebp)
 80493ac:	0f 84 df 00 00 00    	je     8049491 <main+0xe9c>
 80493b2:	81 7d dc ef be ad de 	cmpl   $0xdeadbeef,-0x24(%ebp)
 80493b9:	75 6b                	jne    8049426 <main+0xe31>
 80493bb:	83 ec 04             	sub    $0x4,%esp
 80493be:	68 ec 90 06 08       	push   $0x80690ec
 80493c3:	68 d8 4d 06 08       	push   $0x8064dd8
 80493c8:	68 73 fd 04 08       	push   $0x804fd73
 80493cd:	e8 7e f0 ff ff       	call   8048450 <__isoc99_scanf@plt>
 80493d2:	83 c4 10             	add    $0x10,%esp
 80493d5:	83 7d d4 00          	cmpl   $0x0,-0x2c(%ebp)
 80493d9:	74 3e                	je     8049419 <main+0xe24>
 80493db:	83 ec 04             	sub    $0x4,%esp
 80493de:	6a 04                	push   $0x4
 80493e0:	8d 45 e0             	lea    -0x20(%ebp),%eax
 80493e3:	50                   	push   %eax
 80493e4:	68 d8 4d 06 08       	push   $0x8064dd8
 80493e9:	e8 72 f0 ff ff       	call   8048460 <strncmp@plt>
 80493ee:	83 c4 10             	add    $0x10,%esp
 80493f1:	85 c0                	test   %eax,%eax
 80493f3:	75 24                	jne    8049419 <main+0xe24>
 80493f5:	83 ec 04             	sub    $0x4,%esp
 80493f8:	6a 04                	push   $0x4
 80493fa:	8d 45 e0             	lea    -0x20(%ebp),%eax
 80493fd:	83 c0 04             	add    $0x4,%eax
 8049400:	50                   	push   %eax
 8049401:	68 ec 90 06 08       	push   $0x80690ec
 8049406:	e8 55 f0 ff ff       	call   8048460 <strncmp@plt>
 804940b:	83 c4 10             	add    $0x10,%esp
 804940e:	85 c0                	test   %eax,%eax
 8049410:	75 07                	jne    8049419 <main+0xe24>
 8049412:	b8 01 00 00 00       	mov    $0x1,%eax
 8049417:	eb 05                	jmp    804941e <main+0xe29>
 8049419:	b8 00 00 00 00       	mov    $0x0,%eax
 804941e:	89 45 d4             	mov    %eax,-0x2c(%ebp)
 8049421:	e9 5b 68 00 00       	jmp    804fc81 <main+0x768c>
 8049426:	83 ec 04             	sub    $0x4,%esp
 8049429:	68 ec 90 06 08       	push   $0x80690ec
 804942e:	68 d8 4d 06 08       	push   $0x8064dd8
 8049433:	68 73 fd 04 08       	push   $0x804fd73
 8049438:	e8 13 f0 ff ff       	call   8048450 <__isoc99_scanf@plt>
 804943d:	83 c4 10             	add    $0x10,%esp
 8049440:	83 7d d4 00          	cmpl   $0x0,-0x2c(%ebp)
 8049444:	74 3e                	je     8049484 <main+0xe8f>
 8049446:	83 ec 04             	sub    $0x4,%esp
 8049449:	6a 04                	push   $0x4
 804944b:	8d 45 e0             	lea    -0x20(%ebp),%eax
 804944e:	50                   	push   %eax
 804944f:	68 d8 4d 06 08       	push   $0x8064dd8
 8049454:	e8 07 f0 ff ff       	call   8048460 <strncmp@plt>
 8049459:	83 c4 10             	add    $0x10,%esp
 804945c:	85 c0                	test   %eax,%eax
 804945e:	75 24                	jne    8049484 <main+0xe8f>
 8049460:	83 ec 04             	sub    $0x4,%esp
 8049463:	6a 04                	push   $0x4
 8049465:	8d 45 e0             	lea    -0x20(%ebp),%eax
 8049468:	83 c0 04             	add    $0x4,%eax
 804946b:	50                   	push   %eax
 804946c:	68 ec 90 06 08       	push   $0x80690ec
 8049471:	e8 ea ef ff ff       	call   8048460 <strncmp@plt>
 8049476:	83 c4 10             	add    $0x10,%esp
 8049479:	85 c0                	test   %eax,%eax
 804947b:	75 07                	jne    8049484 <main+0xe8f>
 804947d:	b8 01 00 00 00       	mov    $0x1,%eax
 8049482:	eb 05                	jmp    8049489 <main+0xe94>
 8049484:	b8 00 00 00 00       	mov    $0x0,%eax
 8049489:	89 45 d4             	mov    %eax,-0x2c(%ebp)
 804948c:	e9 f0 67 00 00       	jmp    804fc81 <main+0x768c>
 8049491:	81 7d dc ef be ad de 	cmpl   $0xdeadbeef,-0x24(%ebp)
 8049498:	75 6b                	jne    8049505 <main+0xf10>
 804949a:	83 ec 04             	sub    $0x4,%esp
 804949d:	68 ec 90 06 08       	push   $0x80690ec
 80494a2:	68 d8 4d 06 08       	push   $0x8064dd8
 80494a7:	68 73 fd 04 08       	push   $0x804fd73
 80494ac:	e8 9f ef ff ff       	call   8048450 <__isoc99_scanf@plt>
 80494b1:	83 c4 10             	add    $0x10,%esp
 80494b4:	83 7d d4 00          	cmpl   $0x0,-0x2c(%ebp)
 80494b8:	74 3e                	je     80494f8 <main+0xf03>
 80494ba:	83 ec 04             	sub    $0x4,%esp
 80494bd:	6a 04                	push   $0x4
 80494bf:	8d 45 e0             	lea    -0x20(%ebp),%eax
 80494c2:	50                   	push   %eax
 80494c3:	68 d8 4d 06 08       	push   $0x8064dd8
 80494c8:	e8 93 ef ff ff       	call   8048460 <strncmp@plt>
 80494cd:	83 c4 10             	add    $0x10,%esp
 80494d0:	85 c0                	test   %eax,%eax
 80494d2:	75 24                	jne    80494f8 <main+0xf03>
 80494d4:	83 ec 04             	sub    $0x4,%esp
 80494d7:	6a 04                	push   $0x4
 80494d9:	8d 45 e0             	lea    -0x20(%ebp),%eax
 80494dc:	83 c0 04             	add    $0x4,%eax
 80494df:	50                   	push   %eax
 80494e0:	68 ec 90 06 08       	push   $0x80690ec
 80494e5:	e8 76 ef ff ff       	call   8048460 <strncmp@plt>
 80494ea:	83 c4 10             	add    $0x10,%esp
 80494ed:	85 c0                	test   %eax,%eax
 80494ef:	75 07                	jne    80494f8 <main+0xf03>
 80494f1:	b8 01 00 00 00       	mov    $0x1,%eax
 80494f6:	eb 05                	jmp    80494fd <main+0xf08>
 80494f8:	b8 00 00 00 00       	mov    $0x0,%eax
 80494fd:	89 45 d4             	mov    %eax,-0x2c(%ebp)
 8049500:	e9 7c 67 00 00       	jmp    804fc81 <main+0x768c>
 8049505:	83 ec 04             	sub    $0x4,%esp
 8049508:	68 ec 90 06 08       	push   $0x80690ec
 804950d:	68 d8 4d 06 08       	push   $0x8064dd8
 8049512:	68 73 fd 04 08       	push   $0x804fd73
 8049517:	e8 34 ef ff ff       	call   8048450 <__isoc99_scanf@plt>
 804951c:	83 c4 10             	add    $0x10,%esp
 804951f:	83 7d d4 00          	cmpl   $0x0,-0x2c(%ebp)
 8049523:	74 3e                	je     8049563 <main+0xf6e>
 8049525:	83 ec 04             	sub    $0x4,%esp
 8049528:	6a 04                	push   $0x4
 804952a:	8d 45 e0             	lea    -0x20(%ebp),%eax
 804952d:	50                   	push   %eax
 804952e:	68 d8 4d 06 08       	push   $0x8064dd8
 8049533:	e8 28 ef ff ff       	call   8048460 <strncmp@plt>
 8049538:	83 c4 10             	add    $0x10,%esp
 804953b:	85 c0                	test   %eax,%eax
 804953d:	75 24                	jne    8049563 <main+0xf6e>
 804953f:	83 ec 04             	sub    $0x4,%esp
 8049542:	6a 04                	push   $0x4
 8049544:	8d 45 e0             	lea    -0x20(%ebp),%eax
 8049547:	83 c0 04             	add    $0x4,%eax
 804954a:	50                   	push   %eax
 804954b:	68 ec 90 06 08       	push   $0x80690ec
 8049550:	e8 0b ef ff ff       	call   8048460 <strncmp@plt>
 8049555:	83 c4 10             	add    $0x10,%esp
 8049558:	85 c0                	test   %eax,%eax
 804955a:	75 07                	jne    8049563 <main+0xf6e>
 804955c:	b8 01 00 00 00       	mov    $0x1,%eax
 8049561:	eb 05                	jmp    8049568 <main+0xf73>
 8049563:	b8 00 00 00 00       	mov    $0x0,%eax
 8049568:	89 45 d4             	mov    %eax,-0x2c(%ebp)
 804956b:	e9 11 67 00 00       	jmp    804fc81 <main+0x768c>
 8049570:	81 7d dc ef be ad de 	cmpl   $0xdeadbeef,-0x24(%ebp)
 8049577:	0f 85 53 07 00 00    	jne    8049cd0 <main+0x16db>
 804957d:	81 7d dc ef be ad de 	cmpl   $0xdeadbeef,-0x24(%ebp)
 8049584:	0f 85 a3 03 00 00    	jne    804992d <main+0x1338>
 804958a:	81 7d dc ef be ad de 	cmpl   $0xdeadbeef,-0x24(%ebp)
 8049591:	0f 85 cb 01 00 00    	jne    8049762 <main+0x116d>
 8049597:	81 7d dc ef be ad de 	cmpl   $0xdeadbeef,-0x24(%ebp)
 804959e:	0f 84 df 00 00 00    	je     8049683 <main+0x108e>
 80495a4:	81 7d dc ef be ad de 	cmpl   $0xdeadbeef,-0x24(%ebp)
 80495ab:	74 6b                	je     8049618 <main+0x1023>
 80495ad:	83 ec 04             	sub    $0x4,%esp
 80495b0:	68 ec 90 06 08       	push   $0x80690ec
 80495b5:	68 d8 4d 06 08       	push   $0x8064dd8
 80495ba:	68 73 fd 04 08       	push   $0x804fd73
 80495bf:	e8 8c ee ff ff       	call   8048450 <__isoc99_scanf@plt>
 80495c4:	83 c4 10             	add    $0x10,%esp
 80495c7:	83 7d d4 00          	cmpl   $0x0,-0x2c(%ebp)
 80495cb:	74 3e                	je     804960b <main+0x1016>
 80495cd:	83 ec 04             	sub    $0x4,%esp
 80495d0:	6a 04                	push   $0x4
 80495d2:	8d 45 e0             	lea    -0x20(%ebp),%eax
 80495d5:	50                   	push   %eax
 80495d6:	68 d8 4d 06 08       	push   $0x8064dd8
 80495db:	e8 80 ee ff ff       	call   8048460 <strncmp@plt>
 80495e0:	83 c4 10             	add    $0x10,%esp
 80495e3:	85 c0                	test   %eax,%eax
 80495e5:	75 24                	jne    804960b <main+0x1016>
 80495e7:	83 ec 04             	sub    $0x4,%esp
 80495ea:	6a 04                	push   $0x4
 80495ec:	8d 45 e0             	lea    -0x20(%ebp),%eax
 80495ef:	83 c0 04             	add    $0x4,%eax
 80495f2:	50                   	push   %eax
 80495f3:	68 ec 90 06 08       	push   $0x80690ec
 80495f8:	e8 63 ee ff ff       	call   8048460 <strncmp@plt>
 80495fd:	83 c4 10             	add    $0x10,%esp
 8049600:	85 c0                	test   %eax,%eax
 8049602:	75 07                	jne    804960b <main+0x1016>
 8049604:	b8 01 00 00 00       	mov    $0x1,%eax
 8049609:	eb 05                	jmp    8049610 <main+0x101b>
 804960b:	b8 00 00 00 00       	mov    $0x0,%eax
 8049610:	89 45 d4             	mov    %eax,-0x2c(%ebp)
 8049613:	e9 69 66 00 00       	jmp    804fc81 <main+0x768c>
 8049618:	83 ec 04             	sub    $0x4,%esp
 804961b:	68 ec 90 06 08       	push   $0x80690ec
 8049620:	68 d8 4d 06 08       	push   $0x8064dd8
 8049625:	68 73 fd 04 08       	push   $0x804fd73
 804962a:	e8 21 ee ff ff       	call   8048450 <__isoc99_scanf@plt>
 804962f:	83 c4 10             	add    $0x10,%esp
 8049632:	83 7d d4 00          	cmpl   $0x0,-0x2c(%ebp)
 8049636:	74 3e                	je     8049676 <main+0x1081>
 8049638:	83 ec 04             	sub    $0x4,%esp
 804963b:	6a 04                	push   $0x4
 804963d:	8d 45 e0             	lea    -0x20(%ebp),%eax
 8049640:	50                   	push   %eax
 8049641:	68 d8 4d 06 08       	push   $0x8064dd8
 8049646:	e8 15 ee ff ff       	call   8048460 <strncmp@plt>
 804964b:	83 c4 10             	add    $0x10,%esp
 804964e:	85 c0                	test   %eax,%eax
 8049650:	75 24                	jne    8049676 <main+0x1081>
 8049652:	83 ec 04             	sub    $0x4,%esp
 8049655:	6a 04                	push   $0x4
 8049657:	8d 45 e0             	lea    -0x20(%ebp),%eax
 804965a:	83 c0 04             	add    $0x4,%eax
 804965d:	50                   	push   %eax
 804965e:	68 ec 90 06 08       	push   $0x80690ec
 8049663:	e8 f8 ed ff ff       	call   8048460 <strncmp@plt>
 8049668:	83 c4 10             	add    $0x10,%esp
 804966b:	85 c0                	test   %eax,%eax
 804966d:	75 07                	jne    8049676 <main+0x1081>
 804966f:	b8 01 00 00 00       	mov    $0x1,%eax
 8049674:	eb 05                	jmp    804967b <main+0x1086>
 8049676:	b8 00 00 00 00       	mov    $0x0,%eax
 804967b:	89 45 d4             	mov    %eax,-0x2c(%ebp)
 804967e:	e9 fe 65 00 00       	jmp    804fc81 <main+0x768c>
 8049683:	81 7d dc ef be ad de 	cmpl   $0xdeadbeef,-0x24(%ebp)
 804968a:	75 6b                	jne    80496f7 <main+0x1102>
 804968c:	83 ec 04             	sub    $0x4,%esp
 804968f:	68 ec 90 06 08       	push   $0x80690ec
 8049694:	68 d8 4d 06 08       	push   $0x8064dd8
 8049699:	68 73 fd 04 08       	push   $0x804fd73
 804969e:	e8 ad ed ff ff       	call   8048450 <__isoc99_scanf@plt>
 80496a3:	83 c4 10             	add    $0x10,%esp
 80496a6:	83 7d d4 00          	cmpl   $0x0,-0x2c(%ebp)
 80496aa:	74 3e                	je     80496ea <main+0x10f5>
 80496ac:	83 ec 04             	sub    $0x4,%esp
 80496af:	6a 04                	push   $0x4
 80496b1:	8d 45 e0             	lea    -0x20(%ebp),%eax
 80496b4:	50                   	push   %eax
 80496b5:	68 d8 4d 06 08       	push   $0x8064dd8
 80496ba:	e8 a1 ed ff ff       	call   8048460 <strncmp@plt>
 80496bf:	83 c4 10             	add    $0x10,%esp
 80496c2:	85 c0                	test   %eax,%eax
 80496c4:	75 24                	jne    80496ea <main+0x10f5>
 80496c6:	83 ec 04             	sub    $0x4,%esp
 80496c9:	6a 04                	push   $0x4
 80496cb:	8d 45 e0             	lea    -0x20(%ebp),%eax
 80496ce:	83 c0 04             	add    $0x4,%eax
 80496d1:	50                   	push   %eax
 80496d2:	68 ec 90 06 08       	push   $0x80690ec
 80496d7:	e8 84 ed ff ff       	call   8048460 <strncmp@plt>
 80496dc:	83 c4 10             	add    $0x10,%esp
 80496df:	85 c0                	test   %eax,%eax
 80496e1:	75 07                	jne    80496ea <main+0x10f5>
 80496e3:	b8 01 00 00 00       	mov    $0x1,%eax
 80496e8:	eb 05                	jmp    80496ef <main+0x10fa>
 80496ea:	b8 00 00 00 00       	mov    $0x0,%eax
 80496ef:	89 45 d4             	mov    %eax,-0x2c(%ebp)
 80496f2:	e9 8a 65 00 00       	jmp    804fc81 <main+0x768c>
 80496f7:	83 ec 04             	sub    $0x4,%esp
 80496fa:	68 ec 90 06 08       	push   $0x80690ec
 80496ff:	68 d8 4d 06 08       	push   $0x8064dd8
 8049704:	68 73 fd 04 08       	push   $0x804fd73
 8049709:	e8 42 ed ff ff       	call   8048450 <__isoc99_scanf@plt>
 804970e:	83 c4 10             	add    $0x10,%esp
 8049711:	83 7d d4 00          	cmpl   $0x0,-0x2c(%ebp)
 8049715:	74 3e                	je     8049755 <main+0x1160>
 8049717:	83 ec 04             	sub    $0x4,%esp
 804971a:	6a 04                	push   $0x4
 804971c:	8d 45 e0             	lea    -0x20(%ebp),%eax
 804971f:	50                   	push   %eax
 8049720:	68 d8 4d 06 08       	push   $0x8064dd8
 8049725:	e8 36 ed ff ff       	call   8048460 <strncmp@plt>
 804972a:	83 c4 10             	add    $0x10,%esp
 804972d:	85 c0                	test   %eax,%eax
 804972f:	75 24                	jne    8049755 <main+0x1160>
 8049731:	83 ec 04             	sub    $0x4,%esp
 8049734:	6a 04                	push   $0x4
 8049736:	8d 45 e0             	lea    -0x20(%ebp),%eax
 8049739:	83 c0 04             	add    $0x4,%eax
 804973c:	50                   	push   %eax
 804973d:	68 ec 90 06 08       	push   $0x80690ec
 8049742:	e8 19 ed ff ff       	call   8048460 <strncmp@plt>
 8049747:	83 c4 10             	add    $0x10,%esp
 804974a:	85 c0                	test   %eax,%eax
 804974c:	75 07                	jne    8049755 <main+0x1160>
 804974e:	b8 01 00 00 00       	mov    $0x1,%eax
 8049753:	eb 05                	jmp    804975a <main+0x1165>
 8049755:	b8 00 00 00 00       	mov    $0x0,%eax
 804975a:	89 45 d4             	mov    %eax,-0x2c(%ebp)
 804975d:	e9 1f 65 00 00       	jmp    804fc81 <main+0x768c>
 8049762:	81 7d dc ef be ad de 	cmpl   $0xdeadbeef,-0x24(%ebp)
 8049769:	0f 84 df 00 00 00    	je     804984e <main+0x1259>
 804976f:	81 7d dc ef be ad de 	cmpl   $0xdeadbeef,-0x24(%ebp)
 8049776:	75 6b                	jne    80497e3 <main+0x11ee>
 8049778:	83 ec 04             	sub    $0x4,%esp
 804977b:	68 ec 90 06 08       	push   $0x80690ec
 8049780:	68 d8 4d 06 08       	push   $0x8064dd8
 8049785:	68 73 fd 04 08       	push   $0x804fd73
 804978a:	e8 c1 ec ff ff       	call   8048450 <__isoc99_scanf@plt>
 804978f:	83 c4 10             	add    $0x10,%esp
 8049792:	83 7d d4 00          	cmpl   $0x0,-0x2c(%ebp)
 8049796:	74 3e                	je     80497d6 <main+0x11e1>
 8049798:	83 ec 04             	sub    $0x4,%esp
 804979b:	6a 04                	push   $0x4
 804979d:	8d 45 e0             	lea    -0x20(%ebp),%eax
 80497a0:	50                   	push   %eax
 80497a1:	68 d8 4d 06 08       	push   $0x8064dd8
 80497a6:	e8 b5 ec ff ff       	call   8048460 <strncmp@plt>
 80497ab:	83 c4 10             	add    $0x10,%esp
 80497ae:	85 c0                	test   %eax,%eax
 80497b0:	75 24                	jne    80497d6 <main+0x11e1>
 80497b2:	83 ec 04             	sub    $0x4,%esp
 80497b5:	6a 04                	push   $0x4
 80497b7:	8d 45 e0             	lea    -0x20(%ebp),%eax
 80497ba:	83 c0 04             	add    $0x4,%eax
 80497bd:	50                   	push   %eax
 80497be:	68 ec 90 06 08       	push   $0x80690ec
 80497c3:	e8 98 ec ff ff       	call   8048460 <strncmp@plt>
 80497c8:	83 c4 10             	add    $0x10,%esp
 80497cb:	85 c0                	test   %eax,%eax
 80497cd:	75 07                	jne    80497d6 <main+0x11e1>
 80497cf:	b8 01 00 00 00       	mov    $0x1,%eax
 80497d4:	eb 05                	jmp    80497db <main+0x11e6>
 80497d6:	b8 00 00 00 00       	mov    $0x0,%eax
 80497db:	89 45 d4             	mov    %eax,-0x2c(%ebp)
 80497de:	e9 9e 64 00 00       	jmp    804fc81 <main+0x768c>
 80497e3:	83 ec 04             	sub    $0x4,%esp
 80497e6:	68 ec 90 06 08       	push   $0x80690ec
 80497eb:	68 d8 4d 06 08       	push   $0x8064dd8
 80497f0:	68 73 fd 04 08       	push   $0x804fd73
 80497f5:	e8 56 ec ff ff       	call   8048450 <__isoc99_scanf@plt>
 80497fa:	83 c4 10             	add    $0x10,%esp
 80497fd:	83 7d d4 00          	cmpl   $0x0,-0x2c(%ebp)
 8049801:	74 3e                	je     8049841 <main+0x124c>
 8049803:	83 ec 04             	sub    $0x4,%esp
 8049806:	6a 04                	push   $0x4
 8049808:	8d 45 e0             	lea    -0x20(%ebp),%eax
 804980b:	50                   	push   %eax
 804980c:	68 d8 4d 06 08       	push   $0x8064dd8
 8049811:	e8 4a ec ff ff       	call   8048460 <strncmp@plt>
 8049816:	83 c4 10             	add    $0x10,%esp
 8049819:	85 c0                	test   %eax,%eax
 804981b:	75 24                	jne    8049841 <main+0x124c>
 804981d:	83 ec 04             	sub    $0x4,%esp
 8049820:	6a 04                	push   $0x4
 8049822:	8d 45 e0             	lea    -0x20(%ebp),%eax
 8049825:	83 c0 04             	add    $0x4,%eax
 8049828:	50                   	push   %eax
 8049829:	68 ec 90 06 08       	push   $0x80690ec
 804982e:	e8 2d ec ff ff       	call   8048460 <strncmp@plt>
 8049833:	83 c4 10             	add    $0x10,%esp
 8049836:	85 c0                	test   %eax,%eax
 8049838:	75 07                	jne    8049841 <main+0x124c>
 804983a:	b8 01 00 00 00       	mov    $0x1,%eax
 804983f:	eb 05                	jmp    8049846 <main+0x1251>
 8049841:	b8 00 00 00 00       	mov    $0x0,%eax
 8049846:	89 45 d4             	mov    %eax,-0x2c(%ebp)
 8049849:	e9 33 64 00 00       	jmp    804fc81 <main+0x768c>
 804984e:	81 7d dc ef be ad de 	cmpl   $0xdeadbeef,-0x24(%ebp)
 8049855:	75 6b                	jne    80498c2 <main+0x12cd>
 8049857:	83 ec 04             	sub    $0x4,%esp
 804985a:	68 ec 90 06 08       	push   $0x80690ec
 804985f:	68 d8 4d 06 08       	push   $0x8064dd8
 8049864:	68 73 fd 04 08       	push   $0x804fd73
 8049869:	e8 e2 eb ff ff       	call   8048450 <__isoc99_scanf@plt>
 804986e:	83 c4 10             	add    $0x10,%esp
 8049871:	83 7d d4 00          	cmpl   $0x0,-0x2c(%ebp)
 8049875:	74 3e                	je     80498b5 <main+0x12c0>
 8049877:	83 ec 04             	sub    $0x4,%esp
 804987a:	6a 04                	push   $0x4
 804987c:	8d 45 e0             	lea    -0x20(%ebp),%eax
 804987f:	50                   	push   %eax
 8049880:	68 d8 4d 06 08       	push   $0x8064dd8
 8049885:	e8 d6 eb ff ff       	call   8048460 <strncmp@plt>
 804988a:	83 c4 10             	add    $0x10,%esp
 804988d:	85 c0                	test   %eax,%eax
 804988f:	75 24                	jne    80498b5 <main+0x12c0>
 8049891:	83 ec 04             	sub    $0x4,%esp
 8049894:	6a 04                	push   $0x4
 8049896:	8d 45 e0             	lea    -0x20(%ebp),%eax
 8049899:	83 c0 04             	add    $0x4,%eax
 804989c:	50                   	push   %eax
 804989d:	68 ec 90 06 08       	push   $0x80690ec
 80498a2:	e8 b9 eb ff ff       	call   8048460 <strncmp@plt>
 80498a7:	83 c4 10             	add    $0x10,%esp
 80498aa:	85 c0                	test   %eax,%eax
 80498ac:	75 07                	jne    80498b5 <main+0x12c0>
 80498ae:	b8 01 00 00 00       	mov    $0x1,%eax
 80498b3:	eb 05                	jmp    80498ba <main+0x12c5>
 80498b5:	b8 00 00 00 00       	mov    $0x0,%eax
 80498ba:	89 45 d4             	mov    %eax,-0x2c(%ebp)
 80498bd:	e9 bf 63 00 00       	jmp    804fc81 <main+0x768c>
 80498c2:	83 ec 04             	sub    $0x4,%esp
 80498c5:	68 ec 90 06 08       	push   $0x80690ec
 80498ca:	68 d8 4d 06 08       	push   $0x8064dd8
 80498cf:	68 73 fd 04 08       	push   $0x804fd73
 80498d4:	e8 77 eb ff ff       	call   8048450 <__isoc99_scanf@plt>
 80498d9:	83 c4 10             	add    $0x10,%esp
 80498dc:	83 7d d4 00          	cmpl   $0x0,-0x2c(%ebp)
 80498e0:	74 3e                	je     8049920 <main+0x132b>
 80498e2:	83 ec 04             	sub    $0x4,%esp
 80498e5:	6a 04                	push   $0x4
 80498e7:	8d 45 e0             	lea    -0x20(%ebp),%eax
 80498ea:	50                   	push   %eax
 80498eb:	68 d8 4d 06 08       	push   $0x8064dd8
 80498f0:	e8 6b eb ff ff       	call   8048460 <strncmp@plt>
 80498f5:	83 c4 10             	add    $0x10,%esp
 80498f8:	85 c0                	test   %eax,%eax
 80498fa:	75 24                	jne    8049920 <main+0x132b>
 80498fc:	83 ec 04             	sub    $0x4,%esp
 80498ff:	6a 04                	push   $0x4
 8049901:	8d 45 e0             	lea    -0x20(%ebp),%eax
 8049904:	83 c0 04             	add    $0x4,%eax
 8049907:	50                   	push   %eax
 8049908:	68 ec 90 06 08       	push   $0x80690ec
 804990d:	e8 4e eb ff ff       	call   8048460 <strncmp@plt>
 8049912:	83 c4 10             	add    $0x10,%esp
 8049915:	85 c0                	test   %eax,%eax
 8049917:	75 07                	jne    8049920 <main+0x132b>
 8049919:	b8 01 00 00 00       	mov    $0x1,%eax
 804991e:	eb 05                	jmp    8049925 <main+0x1330>
 8049920:	b8 00 00 00 00       	mov    $0x0,%eax
 8049925:	89 45 d4             	mov    %eax,-0x2c(%ebp)
 8049928:	e9 54 63 00 00       	jmp    804fc81 <main+0x768c>
 804992d:	81 7d dc ef be ad de 	cmpl   $0xdeadbeef,-0x24(%ebp)
 8049934:	0f 85 cb 01 00 00    	jne    8049b05 <main+0x1510>
 804993a:	81 7d dc ef be ad de 	cmpl   $0xdeadbeef,-0x24(%ebp)
 8049941:	0f 85 df 00 00 00    	jne    8049a26 <main+0x1431>
 8049947:	81 7d dc ef be ad de 	cmpl   $0xdeadbeef,-0x24(%ebp)
 804994e:	74 6b                	je     80499bb <main+0x13c6>
 8049950:	83 ec 04             	sub    $0x4,%esp
 8049953:	68 ec 90 06 08       	push   $0x80690ec
 8049958:	68 d8 4d 06 08       	push   $0x8064dd8
 804995d:	68 73 fd 04 08       	push   $0x804fd73
 8049962:	e8 e9 ea ff ff       	call   8048450 <__isoc99_scanf@plt>
 8049967:	83 c4 10             	add    $0x10,%esp
 804996a:	83 7d d4 00          	cmpl   $0x0,-0x2c(%ebp)
 804996e:	74 3e                	je     80499ae <main+0x13b9>
 8049970:	83 ec 04             	sub    $0x4,%esp
 8049973:	6a 04                	push   $0x4
 8049975:	8d 45 e0             	lea    -0x20(%ebp),%eax
 8049978:	50                   	push   %eax
 8049979:	68 d8 4d 06 08       	push   $0x8064dd8
 804997e:	e8 dd ea ff ff       	call   8048460 <strncmp@plt>
 8049983:	83 c4 10             	add    $0x10,%esp
 8049986:	85 c0                	test   %eax,%eax
 8049988:	75 24                	jne    80499ae <main+0x13b9>
 804998a:	83 ec 04             	sub    $0x4,%esp
 804998d:	6a 04                	push   $0x4
 804998f:	8d 45 e0             	lea    -0x20(%ebp),%eax
 8049992:	83 c0 04             	add    $0x4,%eax
 8049995:	50                   	push   %eax
 8049996:	68 ec 90 06 08       	push   $0x80690ec
 804999b:	e8 c0 ea ff ff       	call   8048460 <strncmp@plt>
 80499a0:	83 c4 10             	add    $0x10,%esp
 80499a3:	85 c0                	test   %eax,%eax
 80499a5:	75 07                	jne    80499ae <main+0x13b9>
 80499a7:	b8 01 00 00 00       	mov    $0x1,%eax
 80499ac:	eb 05                	jmp    80499b3 <main+0x13be>
 80499ae:	b8 00 00 00 00       	mov    $0x0,%eax
 80499b3:	89 45 d4             	mov    %eax,-0x2c(%ebp)
 80499b6:	e9 c6 62 00 00       	jmp    804fc81 <main+0x768c>
 80499bb:	83 ec 04             	sub    $0x4,%esp
 80499be:	68 ec 90 06 08       	push   $0x80690ec
 80499c3:	68 d8 4d 06 08       	push   $0x8064dd8
 80499c8:	68 73 fd 04 08       	push   $0x804fd73
 80499cd:	e8 7e ea ff ff       	call   8048450 <__isoc99_scanf@plt>
 80499d2:	83 c4 10             	add    $0x10,%esp
 80499d5:	83 7d d4 00          	cmpl   $0x0,-0x2c(%ebp)
 80499d9:	74 3e                	je     8049a19 <main+0x1424>
 80499db:	83 ec 04             	sub    $0x4,%esp
 80499de:	6a 04                	push   $0x4
 80499e0:	8d 45 e0             	lea    -0x20(%ebp),%eax
 80499e3:	50                   	push   %eax
 80499e4:	68 d8 4d 06 08       	push   $0x8064dd8
 80499e9:	e8 72 ea ff ff       	call   8048460 <strncmp@plt>
 80499ee:	83 c4 10             	add    $0x10,%esp
 80499f1:	85 c0                	test   %eax,%eax
 80499f3:	75 24                	jne    8049a19 <main+0x1424>
 80499f5:	83 ec 04             	sub    $0x4,%esp
 80499f8:	6a 04                	push   $0x4
 80499fa:	8d 45 e0             	lea    -0x20(%ebp),%eax
 80499fd:	83 c0 04             	add    $0x4,%eax
 8049a00:	50                   	push   %eax
 8049a01:	68 ec 90 06 08       	push   $0x80690ec
 8049a06:	e8 55 ea ff ff       	call   8048460 <strncmp@plt>
 8049a0b:	83 c4 10             	add    $0x10,%esp
 8049a0e:	85 c0                	test   %eax,%eax
 8049a10:	75 07                	jne    8049a19 <main+0x1424>
 8049a12:	b8 01 00 00 00       	mov    $0x1,%eax
 8049a17:	eb 05                	jmp    8049a1e <main+0x1429>
 8049a19:	b8 00 00 00 00       	mov    $0x0,%eax
 8049a1e:	89 45 d4             	mov    %eax,-0x2c(%ebp)
 8049a21:	e9 5b 62 00 00       	jmp    804fc81 <main+0x768c>
 8049a26:	81 7d dc ef be ad de 	cmpl   $0xdeadbeef,-0x24(%ebp)
 8049a2d:	75 6b                	jne    8049a9a <main+0x14a5>
 8049a2f:	83 ec 04             	sub    $0x4,%esp
 8049a32:	68 ec 90 06 08       	push   $0x80690ec
 8049a37:	68 d8 4d 06 08       	push   $0x8064dd8
 8049a3c:	68 73 fd 04 08       	push   $0x804fd73
 8049a41:	e8 0a ea ff ff       	call   8048450 <__isoc99_scanf@plt>
 8049a46:	83 c4 10             	add    $0x10,%esp
 8049a49:	83 7d d4 00          	cmpl   $0x0,-0x2c(%ebp)
 8049a4d:	74 3e                	je     8049a8d <main+0x1498>
 8049a4f:	83 ec 04             	sub    $0x4,%esp
 8049a52:	6a 04                	push   $0x4
 8049a54:	8d 45 e0             	lea    -0x20(%ebp),%eax
 8049a57:	50                   	push   %eax
 8049a58:	68 d8 4d 06 08       	push   $0x8064dd8
 8049a5d:	e8 fe e9 ff ff       	call   8048460 <strncmp@plt>
 8049a62:	83 c4 10             	add    $0x10,%esp
 8049a65:	85 c0                	test   %eax,%eax
 8049a67:	75 24                	jne    8049a8d <main+0x1498>
 8049a69:	83 ec 04             	sub    $0x4,%esp
 8049a6c:	6a 04                	push   $0x4
 8049a6e:	8d 45 e0             	lea    -0x20(%ebp),%eax
 8049a71:	83 c0 04             	add    $0x4,%eax
 8049a74:	50                   	push   %eax
 8049a75:	68 ec 90 06 08       	push   $0x80690ec
 8049a7a:	e8 e1 e9 ff ff       	call   8048460 <strncmp@plt>
 8049a7f:	83 c4 10             	add    $0x10,%esp
 8049a82:	85 c0                	test   %eax,%eax
 8049a84:	75 07                	jne    8049a8d <main+0x1498>
 8049a86:	b8 01 00 00 00       	mov    $0x1,%eax
 8049a8b:	eb 05                	jmp    8049a92 <main+0x149d>
 8049a8d:	b8 00 00 00 00       	mov    $0x0,%eax
 8049a92:	89 45 d4             	mov    %eax,-0x2c(%ebp)
 8049a95:	e9 e7 61 00 00       	jmp    804fc81 <main+0x768c>
 8049a9a:	83 ec 04             	sub    $0x4,%esp
 8049a9d:	68 ec 90 06 08       	push   $0x80690ec
 8049aa2:	68 d8 4d 06 08       	push   $0x8064dd8
 8049aa7:	68 73 fd 04 08       	push   $0x804fd73
 8049aac:	e8 9f e9 ff ff       	call   8048450 <__isoc99_scanf@plt>
 8049ab1:	83 c4 10             	add    $0x10,%esp
 8049ab4:	83 7d d4 00          	cmpl   $0x0,-0x2c(%ebp)
 8049ab8:	74 3e                	je     8049af8 <main+0x1503>
 8049aba:	83 ec 04             	sub    $0x4,%esp
 8049abd:	6a 04                	push   $0x4
 8049abf:	8d 45 e0             	lea    -0x20(%ebp),%eax
 8049ac2:	50                   	push   %eax
 8049ac3:	68 d8 4d 06 08       	push   $0x8064dd8
 8049ac8:	e8 93 e9 ff ff       	call   8048460 <strncmp@plt>
 8049acd:	83 c4 10             	add    $0x10,%esp
 8049ad0:	85 c0                	test   %eax,%eax
 8049ad2:	75 24                	jne    8049af8 <main+0x1503>
 8049ad4:	83 ec 04             	sub    $0x4,%esp
 8049ad7:	6a 04                	push   $0x4
 8049ad9:	8d 45 e0             	lea    -0x20(%ebp),%eax
 8049adc:	83 c0 04             	add    $0x4,%eax
 8049adf:	50                   	push   %eax
 8049ae0:	68 ec 90 06 08       	push   $0x80690ec
 8049ae5:	e8 76 e9 ff ff       	call   8048460 <strncmp@plt>
 8049aea:	83 c4 10             	add    $0x10,%esp
 8049aed:	85 c0                	test   %eax,%eax
 8049aef:	75 07                	jne    8049af8 <main+0x1503>
 8049af1:	b8 01 00 00 00       	mov    $0x1,%eax
 8049af6:	eb 05                	jmp    8049afd <main+0x1508>
 8049af8:	b8 00 00 00 00       	mov    $0x0,%eax
 8049afd:	89 45 d4             	mov    %eax,-0x2c(%ebp)
 8049b00:	e9 7c 61 00 00       	jmp    804fc81 <main+0x768c>
 8049b05:	81 7d dc ef be ad de 	cmpl   $0xdeadbeef,-0x24(%ebp)
 8049b0c:	0f 85 df 00 00 00    	jne    8049bf1 <main+0x15fc>
 8049b12:	81 7d dc ef be ad de 	cmpl   $0xdeadbeef,-0x24(%ebp)
 8049b19:	74 6b                	je     8049b86 <main+0x1591>
 8049b1b:	83 ec 04             	sub    $0x4,%esp
 8049b1e:	68 ec 90 06 08       	push   $0x80690ec
 8049b23:	68 d8 4d 06 08       	push   $0x8064dd8
 8049b28:	68 73 fd 04 08       	push   $0x804fd73
 8049b2d:	e8 1e e9 ff ff       	call   8048450 <__isoc99_scanf@plt>
 8049b32:	83 c4 10             	add    $0x10,%esp
 8049b35:	83 7d d4 00          	cmpl   $0x0,-0x2c(%ebp)
 8049b39:	74 3e                	je     8049b79 <main+0x1584>
 8049b3b:	83 ec 04             	sub    $0x4,%esp
 8049b3e:	6a 04                	push   $0x4
 8049b40:	8d 45 e0             	lea    -0x20(%ebp),%eax
 8049b43:	50                   	push   %eax
 8049b44:	68 d8 4d 06 08       	push   $0x8064dd8
 8049b49:	e8 12 e9 ff ff       	call   8048460 <strncmp@plt>
 8049b4e:	83 c4 10             	add    $0x10,%esp
 8049b51:	85 c0                	test   %eax,%eax
 8049b53:	75 24                	jne    8049b79 <main+0x1584>
 8049b55:	83 ec 04             	sub    $0x4,%esp
 8049b58:	6a 04                	push   $0x4
 8049b5a:	8d 45 e0             	lea    -0x20(%ebp),%eax
 8049b5d:	83 c0 04             	add    $0x4,%eax
 8049b60:	50                   	push   %eax
 8049b61:	68 ec 90 06 08       	push   $0x80690ec
 8049b66:	e8 f5 e8 ff ff       	call   8048460 <strncmp@plt>
 8049b6b:	83 c4 10             	add    $0x10,%esp
 8049b6e:	85 c0                	test   %eax,%eax
 8049b70:	75 07                	jne    8049b79 <main+0x1584>
 8049b72:	b8 01 00 00 00       	mov    $0x1,%eax
 8049b77:	eb 05                	jmp    8049b7e <main+0x1589>
 8049b79:	b8 00 00 00 00       	mov    $0x0,%eax
 8049b7e:	89 45 d4             	mov    %eax,-0x2c(%ebp)
 8049b81:	e9 fb 60 00 00       	jmp    804fc81 <main+0x768c>
 8049b86:	83 ec 04             	sub    $0x4,%esp
 8049b89:	68 ec 90 06 08       	push   $0x80690ec
 8049b8e:	68 d8 4d 06 08       	push   $0x8064dd8
 8049b93:	68 73 fd 04 08       	push   $0x804fd73
 8049b98:	e8 b3 e8 ff ff       	call   8048450 <__isoc99_scanf@plt>
 8049b9d:	83 c4 10             	add    $0x10,%esp
 8049ba0:	83 7d d4 00          	cmpl   $0x0,-0x2c(%ebp)
 8049ba4:	74 3e                	je     8049be4 <main+0x15ef>
 8049ba6:	83 ec 04             	sub    $0x4,%esp
 8049ba9:	6a 04                	push   $0x4
 8049bab:	8d 45 e0             	lea    -0x20(%ebp),%eax
 8049bae:	50                   	push   %eax
 8049baf:	68 d8 4d 06 08       	push   $0x8064dd8
 8049bb4:	e8 a7 e8 ff ff       	call   8048460 <strncmp@plt>
 8049bb9:	83 c4 10             	add    $0x10,%esp
 8049bbc:	85 c0                	test   %eax,%eax
 8049bbe:	75 24                	jne    8049be4 <main+0x15ef>
 8049bc0:	83 ec 04             	sub    $0x4,%esp
 8049bc3:	6a 04                	push   $0x4
 8049bc5:	8d 45 e0             	lea    -0x20(%ebp),%eax
 8049bc8:	83 c0 04             	add    $0x4,%eax
 8049bcb:	50                   	push   %eax
 8049bcc:	68 ec 90 06 08       	push   $0x80690ec
 8049bd1:	e8 8a e8 ff ff       	call   8048460 <strncmp@plt>
 8049bd6:	83 c4 10             	add    $0x10,%esp
 8049bd9:	85 c0                	test   %eax,%eax
 8049bdb:	75 07                	jne    8049be4 <main+0x15ef>
 8049bdd:	b8 01 00 00 00       	mov    $0x1,%eax
 8049be2:	eb 05                	jmp    8049be9 <main+0x15f4>
 8049be4:	b8 00 00 00 00       	mov    $0x0,%eax
 8049be9:	89 45 d4             	mov    %eax,-0x2c(%ebp)
 8049bec:	e9 90 60 00 00       	jmp    804fc81 <main+0x768c>
 8049bf1:	81 7d dc ef be ad de 	cmpl   $0xdeadbeef,-0x24(%ebp)
 8049bf8:	74 6b                	je     8049c65 <main+0x1670>
 8049bfa:	83 ec 04             	sub    $0x4,%esp
 8049bfd:	68 ec 90 06 08       	push   $0x80690ec
 8049c02:	68 d8 4d 06 08       	push   $0x8064dd8
 8049c07:	68 73 fd 04 08       	push   $0x804fd73
 8049c0c:	e8 3f e8 ff ff       	call   8048450 <__isoc99_scanf@plt>
 8049c11:	83 c4 10             	add    $0x10,%esp
 8049c14:	83 7d d4 00          	cmpl   $0x0,-0x2c(%ebp)
 8049c18:	74 3e                	je     8049c58 <main+0x1663>
 8049c1a:	83 ec 04             	sub    $0x4,%esp
 8049c1d:	6a 04                	push   $0x4
 8049c1f:	8d 45 e0             	lea    -0x20(%ebp),%eax
 8049c22:	50                   	push   %eax
 8049c23:	68 d8 4d 06 08       	push   $0x8064dd8
 8049c28:	e8 33 e8 ff ff       	call   8048460 <strncmp@plt>
 8049c2d:	83 c4 10             	add    $0x10,%esp
 8049c30:	85 c0                	test   %eax,%eax
 8049c32:	75 24                	jne    8049c58 <main+0x1663>
 8049c34:	83 ec 04             	sub    $0x4,%esp
 8049c37:	6a 04                	push   $0x4
 8049c39:	8d 45 e0             	lea    -0x20(%ebp),%eax
 8049c3c:	83 c0 04             	add    $0x4,%eax
 8049c3f:	50                   	push   %eax
 8049c40:	68 ec 90 06 08       	push   $0x80690ec
 8049c45:	e8 16 e8 ff ff       	call   8048460 <strncmp@plt>
 8049c4a:	83 c4 10             	add    $0x10,%esp
 8049c4d:	85 c0                	test   %eax,%eax
 8049c4f:	75 07                	jne    8049c58 <main+0x1663>
 8049c51:	b8 01 00 00 00       	mov    $0x1,%eax
 8049c56:	eb 05                	jmp    8049c5d <main+0x1668>
 8049c58:	b8 00 00 00 00       	mov    $0x0,%eax
 8049c5d:	89 45 d4             	mov    %eax,-0x2c(%ebp)
 8049c60:	e9 1c 60 00 00       	jmp    804fc81 <main+0x768c>
 8049c65:	83 ec 04             	sub    $0x4,%esp
 8049c68:	68 ec 90 06 08       	push   $0x80690ec
 8049c6d:	68 d8 4d 06 08       	push   $0x8064dd8
 8049c72:	68 73 fd 04 08       	push   $0x804fd73
 8049c77:	e8 d4 e7 ff ff       	call   8048450 <__isoc99_scanf@plt>
 8049c7c:	83 c4 10             	add    $0x10,%esp
 8049c7f:	83 7d d4 00          	cmpl   $0x0,-0x2c(%ebp)
 8049c83:	74 3e                	je     8049cc3 <main+0x16ce>
 8049c85:	83 ec 04             	sub    $0x4,%esp
 8049c88:	6a 04                	push   $0x4
 8049c8a:	8d 45 e0             	lea    -0x20(%ebp),%eax
 8049c8d:	50                   	push   %eax
 8049c8e:	68 d8 4d 06 08       	push   $0x8064dd8
 8049c93:	e8 c8 e7 ff ff       	call   8048460 <strncmp@plt>
 8049c98:	83 c4 10             	add    $0x10,%esp
 8049c9b:	85 c0                	test   %eax,%eax
 8049c9d:	75 24                	jne    8049cc3 <main+0x16ce>
 8049c9f:	83 ec 04             	sub    $0x4,%esp
 8049ca2:	6a 04                	push   $0x4
 8049ca4:	8d 45 e0             	lea    -0x20(%ebp),%eax
 8049ca7:	83 c0 04             	add    $0x4,%eax
 8049caa:	50                   	push   %eax
 8049cab:	68 ec 90 06 08       	push   $0x80690ec
 8049cb0:	e8 ab e7 ff ff       	call   8048460 <strncmp@plt>
 8049cb5:	83 c4 10             	add    $0x10,%esp
 8049cb8:	85 c0                	test   %eax,%eax
 8049cba:	75 07                	jne    8049cc3 <main+0x16ce>
 8049cbc:	b8 01 00 00 00       	mov    $0x1,%eax
 8049cc1:	eb 05                	jmp    8049cc8 <main+0x16d3>
 8049cc3:	b8 00 00 00 00       	mov    $0x0,%eax
 8049cc8:	89 45 d4             	mov    %eax,-0x2c(%ebp)
 8049ccb:	e9 b1 5f 00 00       	jmp    804fc81 <main+0x768c>
 8049cd0:	81 7d dc ef be ad de 	cmpl   $0xdeadbeef,-0x24(%ebp)
 8049cd7:	0f 85 a3 03 00 00    	jne    804a080 <main+0x1a8b>
 8049cdd:	81 7d dc ef be ad de 	cmpl   $0xdeadbeef,-0x24(%ebp)
 8049ce4:	0f 84 cb 01 00 00    	je     8049eb5 <main+0x18c0>
 8049cea:	81 7d dc ef be ad de 	cmpl   $0xdeadbeef,-0x24(%ebp)
 8049cf1:	0f 84 df 00 00 00    	je     8049dd6 <main+0x17e1>
 8049cf7:	81 7d dc ef be ad de 	cmpl   $0xdeadbeef,-0x24(%ebp)
 8049cfe:	74 6b                	je     8049d6b <main+0x1776>
 8049d00:	83 ec 04             	sub    $0x4,%esp
 8049d03:	68 ec 90 06 08       	push   $0x80690ec
 8049d08:	68 d8 4d 06 08       	push   $0x8064dd8
 8049d0d:	68 73 fd 04 08       	push   $0x804fd73
 8049d12:	e8 39 e7 ff ff       	call   8048450 <__isoc99_scanf@plt>
 8049d17:	83 c4 10             	add    $0x10,%esp
 8049d1a:	83 7d d4 00          	cmpl   $0x0,-0x2c(%ebp)
 8049d1e:	74 3e                	je     8049d5e <main+0x1769>
 8049d20:	83 ec 04             	sub    $0x4,%esp
 8049d23:	6a 04                	push   $0x4
 8049d25:	8d 45 e0             	lea    -0x20(%ebp),%eax
 8049d28:	50                   	push   %eax
 8049d29:	68 d8 4d 06 08       	push   $0x8064dd8
 8049d2e:	e8 2d e7 ff ff       	call   8048460 <strncmp@plt>
 8049d33:	83 c4 10             	add    $0x10,%esp
 8049d36:	85 c0                	test   %eax,%eax
 8049d38:	75 24                	jne    8049d5e <main+0x1769>
 8049d3a:	83 ec 04             	sub    $0x4,%esp
 8049d3d:	6a 04                	push   $0x4
 8049d3f:	8d 45 e0             	lea    -0x20(%ebp),%eax
 8049d42:	83 c0 04             	add    $0x4,%eax
 8049d45:	50                   	push   %eax
 8049d46:	68 ec 90 06 08       	push   $0x80690ec
 8049d4b:	e8 10 e7 ff ff       	call   8048460 <strncmp@plt>
 8049d50:	83 c4 10             	add    $0x10,%esp
 8049d53:	85 c0                	test   %eax,%eax
 8049d55:	75 07                	jne    8049d5e <main+0x1769>
 8049d57:	b8 01 00 00 00       	mov    $0x1,%eax
 8049d5c:	eb 05                	jmp    8049d63 <main+0x176e>
 8049d5e:	b8 00 00 00 00       	mov    $0x0,%eax
 8049d63:	89 45 d4             	mov    %eax,-0x2c(%ebp)
 8049d66:	e9 16 5f 00 00       	jmp    804fc81 <main+0x768c>
 8049d6b:	83 ec 04             	sub    $0x4,%esp
 8049d6e:	68 ec 90 06 08       	push   $0x80690ec
 8049d73:	68 d8 4d 06 08       	push   $0x8064dd8
 8049d78:	68 73 fd 04 08       	push   $0x804fd73
 8049d7d:	e8 ce e6 ff ff       	call   8048450 <__isoc99_scanf@plt>
 8049d82:	83 c4 10             	add    $0x10,%esp
 8049d85:	83 7d d4 00          	cmpl   $0x0,-0x2c(%ebp)
 8049d89:	74 3e                	je     8049dc9 <main+0x17d4>
 8049d8b:	83 ec 04             	sub    $0x4,%esp
 8049d8e:	6a 04                	push   $0x4
 8049d90:	8d 45 e0             	lea    -0x20(%ebp),%eax
 8049d93:	50                   	push   %eax
 8049d94:	68 d8 4d 06 08       	push   $0x8064dd8
 8049d99:	e8 c2 e6 ff ff       	call   8048460 <strncmp@plt>
 8049d9e:	83 c4 10             	add    $0x10,%esp
 8049da1:	85 c0                	test   %eax,%eax
 8049da3:	75 24                	jne    8049dc9 <main+0x17d4>
 8049da5:	83 ec 04             	sub    $0x4,%esp
 8049da8:	6a 04                	push   $0x4
 8049daa:	8d 45 e0             	lea    -0x20(%ebp),%eax
 8049dad:	83 c0 04             	add    $0x4,%eax
 8049db0:	50                   	push   %eax
 8049db1:	68 ec 90 06 08       	push   $0x80690ec
 8049db6:	e8 a5 e6 ff ff       	call   8048460 <strncmp@plt>
 8049dbb:	83 c4 10             	add    $0x10,%esp
 8049dbe:	85 c0                	test   %eax,%eax
 8049dc0:	75 07                	jne    8049dc9 <main+0x17d4>
 8049dc2:	b8 01 00 00 00       	mov    $0x1,%eax
 8049dc7:	eb 05                	jmp    8049dce <main+0x17d9>
 8049dc9:	b8 00 00 00 00       	mov    $0x0,%eax
 8049dce:	89 45 d4             	mov    %eax,-0x2c(%ebp)
 8049dd1:	e9 ab 5e 00 00       	jmp    804fc81 <main+0x768c>
 8049dd6:	81 7d dc ef be ad de 	cmpl   $0xdeadbeef,-0x24(%ebp)
 8049ddd:	74 6b                	je     8049e4a <main+0x1855>
 8049ddf:	83 ec 04             	sub    $0x4,%esp
 8049de2:	68 ec 90 06 08       	push   $0x80690ec
 8049de7:	68 d8 4d 06 08       	push   $0x8064dd8
 8049dec:	68 73 fd 04 08       	push   $0x804fd73
 8049df1:	e8 5a e6 ff ff       	call   8048450 <__isoc99_scanf@plt>
 8049df6:	83 c4 10             	add    $0x10,%esp
 8049df9:	83 7d d4 00          	cmpl   $0x0,-0x2c(%ebp)
 8049dfd:	74 3e                	je     8049e3d <main+0x1848>
 8049dff:	83 ec 04             	sub    $0x4,%esp
 8049e02:	6a 04                	push   $0x4
 8049e04:	8d 45 e0             	lea    -0x20(%ebp),%eax
 8049e07:	50                   	push   %eax
 8049e08:	68 d8 4d 06 08       	push   $0x8064dd8
 8049e0d:	e8 4e e6 ff ff       	call   8048460 <strncmp@plt>
 8049e12:	83 c4 10             	add    $0x10,%esp
 8049e15:	85 c0                	test   %eax,%eax
 8049e17:	75 24                	jne    8049e3d <main+0x1848>
 8049e19:	83 ec 04             	sub    $0x4,%esp
 8049e1c:	6a 04                	push   $0x4
 8049e1e:	8d 45 e0             	lea    -0x20(%ebp),%eax
 8049e21:	83 c0 04             	add    $0x4,%eax
 8049e24:	50                   	push   %eax
 8049e25:	68 ec 90 06 08       	push   $0x80690ec
 8049e2a:	e8 31 e6 ff ff       	call   8048460 <strncmp@plt>
 8049e2f:	83 c4 10             	add    $0x10,%esp
 8049e32:	85 c0                	test   %eax,%eax
 8049e34:	75 07                	jne    8049e3d <main+0x1848>
 8049e36:	b8 01 00 00 00       	mov    $0x1,%eax
 8049e3b:	eb 05                	jmp    8049e42 <main+0x184d>
 8049e3d:	b8 00 00 00 00       	mov    $0x0,%eax
 8049e42:	89 45 d4             	mov    %eax,-0x2c(%ebp)
 8049e45:	e9 37 5e 00 00       	jmp    804fc81 <main+0x768c>
 8049e4a:	83 ec 04             	sub    $0x4,%esp
 8049e4d:	68 ec 90 06 08       	push   $0x80690ec
 8049e52:	68 d8 4d 06 08       	push   $0x8064dd8
 8049e57:	68 73 fd 04 08       	push   $0x804fd73
 8049e5c:	e8 ef e5 ff ff       	call   8048450 <__isoc99_scanf@plt>
 8049e61:	83 c4 10             	add    $0x10,%esp
 8049e64:	83 7d d4 00          	cmpl   $0x0,-0x2c(%ebp)
 8049e68:	74 3e                	je     8049ea8 <main+0x18b3>
 8049e6a:	83 ec 04             	sub    $0x4,%esp
 8049e6d:	6a 04                	push   $0x4
 8049e6f:	8d 45 e0             	lea    -0x20(%ebp),%eax
 8049e72:	50                   	push   %eax
 8049e73:	68 d8 4d 06 08       	push   $0x8064dd8
 8049e78:	e8 e3 e5 ff ff       	call   8048460 <strncmp@plt>
 8049e7d:	83 c4 10             	add    $0x10,%esp
 8049e80:	85 c0                	test   %eax,%eax
 8049e82:	75 24                	jne    8049ea8 <main+0x18b3>
 8049e84:	83 ec 04             	sub    $0x4,%esp
 8049e87:	6a 04                	push   $0x4
 8049e89:	8d 45 e0             	lea    -0x20(%ebp),%eax
 8049e8c:	83 c0 04             	add    $0x4,%eax
 8049e8f:	50                   	push   %eax
 8049e90:	68 ec 90 06 08       	push   $0x80690ec
 8049e95:	e8 c6 e5 ff ff       	call   8048460 <strncmp@plt>
 8049e9a:	83 c4 10             	add    $0x10,%esp
 8049e9d:	85 c0                	test   %eax,%eax
 8049e9f:	75 07                	jne    8049ea8 <main+0x18b3>
 8049ea1:	b8 01 00 00 00       	mov    $0x1,%eax
 8049ea6:	eb 05                	jmp    8049ead <main+0x18b8>
 8049ea8:	b8 00 00 00 00       	mov    $0x0,%eax
 8049ead:	89 45 d4             	mov    %eax,-0x2c(%ebp)
 8049eb0:	e9 cc 5d 00 00       	jmp    804fc81 <main+0x768c>
 8049eb5:	81 7d dc ef be ad de 	cmpl   $0xdeadbeef,-0x24(%ebp)
 8049ebc:	0f 85 df 00 00 00    	jne    8049fa1 <main+0x19ac>
 8049ec2:	81 7d dc ef be ad de 	cmpl   $0xdeadbeef,-0x24(%ebp)
 8049ec9:	74 6b                	je     8049f36 <main+0x1941>
 8049ecb:	83 ec 04             	sub    $0x4,%esp
 8049ece:	68 ec 90 06 08       	push   $0x80690ec
 8049ed3:	68 d8 4d 06 08       	push   $0x8064dd8
 8049ed8:	68 73 fd 04 08       	push   $0x804fd73
 8049edd:	e8 6e e5 ff ff       	call   8048450 <__isoc99_scanf@plt>
 8049ee2:	83 c4 10             	add    $0x10,%esp
 8049ee5:	83 7d d4 00          	cmpl   $0x0,-0x2c(%ebp)
 8049ee9:	74 3e                	je     8049f29 <main+0x1934>
 8049eeb:	83 ec 04             	sub    $0x4,%esp
 8049eee:	6a 04                	push   $0x4
 8049ef0:	8d 45 e0             	lea    -0x20(%ebp),%eax
 8049ef3:	50                   	push   %eax
 8049ef4:	68 d8 4d 06 08       	push   $0x8064dd8
 8049ef9:	e8 62 e5 ff ff       	call   8048460 <strncmp@plt>
 8049efe:	83 c4 10             	add    $0x10,%esp
 8049f01:	85 c0                	test   %eax,%eax
 8049f03:	75 24                	jne    8049f29 <main+0x1934>
 8049f05:	83 ec 04             	sub    $0x4,%esp
 8049f08:	6a 04                	push   $0x4
 8049f0a:	8d 45 e0             	lea    -0x20(%ebp),%eax
 8049f0d:	83 c0 04             	add    $0x4,%eax
 8049f10:	50                   	push   %eax
 8049f11:	68 ec 90 06 08       	push   $0x80690ec
 8049f16:	e8 45 e5 ff ff       	call   8048460 <strncmp@plt>
 8049f1b:	83 c4 10             	add    $0x10,%esp
 8049f1e:	85 c0                	test   %eax,%eax
 8049f20:	75 07                	jne    8049f29 <main+0x1934>
 8049f22:	b8 01 00 00 00       	mov    $0x1,%eax
 8049f27:	eb 05                	jmp    8049f2e <main+0x1939>
 8049f29:	b8 00 00 00 00       	mov    $0x0,%eax
 8049f2e:	89 45 d4             	mov    %eax,-0x2c(%ebp)
 8049f31:	e9 4b 5d 00 00       	jmp    804fc81 <main+0x768c>
 8049f36:	83 ec 04             	sub    $0x4,%esp
 8049f39:	68 ec 90 06 08       	push   $0x80690ec
 8049f3e:	68 d8 4d 06 08       	push   $0x8064dd8
 8049f43:	68 73 fd 04 08       	push   $0x804fd73
 8049f48:	e8 03 e5 ff ff       	call   8048450 <__isoc99_scanf@plt>
 8049f4d:	83 c4 10             	add    $0x10,%esp
 8049f50:	83 7d d4 00          	cmpl   $0x0,-0x2c(%ebp)
 8049f54:	74 3e                	je     8049f94 <main+0x199f>
 8049f56:	83 ec 04             	sub    $0x4,%esp
 8049f59:	6a 04                	push   $0x4
 8049f5b:	8d 45 e0             	lea    -0x20(%ebp),%eax
 8049f5e:	50                   	push   %eax
 8049f5f:	68 d8 4d 06 08       	push   $0x8064dd8
 8049f64:	e8 f7 e4 ff ff       	call   8048460 <strncmp@plt>
 8049f69:	83 c4 10             	add    $0x10,%esp
 8049f6c:	85 c0                	test   %eax,%eax
 8049f6e:	75 24                	jne    8049f94 <main+0x199f>
 8049f70:	83 ec 04             	sub    $0x4,%esp
 8049f73:	6a 04                	push   $0x4
 8049f75:	8d 45 e0             	lea    -0x20(%ebp),%eax
 8049f78:	83 c0 04             	add    $0x4,%eax
 8049f7b:	50                   	push   %eax
 8049f7c:	68 ec 90 06 08       	push   $0x80690ec
 8049f81:	e8 da e4 ff ff       	call   8048460 <strncmp@plt>
 8049f86:	83 c4 10             	add    $0x10,%esp
 8049f89:	85 c0                	test   %eax,%eax
 8049f8b:	75 07                	jne    8049f94 <main+0x199f>
 8049f8d:	b8 01 00 00 00       	mov    $0x1,%eax
 8049f92:	eb 05                	jmp    8049f99 <main+0x19a4>
 8049f94:	b8 00 00 00 00       	mov    $0x0,%eax
 8049f99:	89 45 d4             	mov    %eax,-0x2c(%ebp)
 8049f9c:	e9 e0 5c 00 00       	jmp    804fc81 <main+0x768c>
 8049fa1:	81 7d dc ef be ad de 	cmpl   $0xdeadbeef,-0x24(%ebp)
 8049fa8:	74 6b                	je     804a015 <main+0x1a20>
 8049faa:	83 ec 04             	sub    $0x4,%esp
 8049fad:	68 ec 90 06 08       	push   $0x80690ec
 8049fb2:	68 d8 4d 06 08       	push   $0x8064dd8
 8049fb7:	68 73 fd 04 08       	push   $0x804fd73
 8049fbc:	e8 8f e4 ff ff       	call   8048450 <__isoc99_scanf@plt>
 8049fc1:	83 c4 10             	add    $0x10,%esp
 8049fc4:	83 7d d4 00          	cmpl   $0x0,-0x2c(%ebp)
 8049fc8:	74 3e                	je     804a008 <main+0x1a13>
 8049fca:	83 ec 04             	sub    $0x4,%esp
 8049fcd:	6a 04                	push   $0x4
 8049fcf:	8d 45 e0             	lea    -0x20(%ebp),%eax
 8049fd2:	50                   	push   %eax
 8049fd3:	68 d8 4d 06 08       	push   $0x8064dd8
 8049fd8:	e8 83 e4 ff ff       	call   8048460 <strncmp@plt>
 8049fdd:	83 c4 10             	add    $0x10,%esp
 8049fe0:	85 c0                	test   %eax,%eax
 8049fe2:	75 24                	jne    804a008 <main+0x1a13>
 8049fe4:	83 ec 04             	sub    $0x4,%esp
 8049fe7:	6a 04                	push   $0x4
 8049fe9:	8d 45 e0             	lea    -0x20(%ebp),%eax
 8049fec:	83 c0 04             	add    $0x4,%eax
 8049fef:	50                   	push   %eax
 8049ff0:	68 ec 90 06 08       	push   $0x80690ec
 8049ff5:	e8 66 e4 ff ff       	call   8048460 <strncmp@plt>
 8049ffa:	83 c4 10             	add    $0x10,%esp
 8049ffd:	85 c0                	test   %eax,%eax
 8049fff:	75 07                	jne    804a008 <main+0x1a13>
 804a001:	b8 01 00 00 00       	mov    $0x1,%eax
 804a006:	eb 05                	jmp    804a00d <main+0x1a18>
 804a008:	b8 00 00 00 00       	mov    $0x0,%eax
 804a00d:	89 45 d4             	mov    %eax,-0x2c(%ebp)
 804a010:	e9 6c 5c 00 00       	jmp    804fc81 <main+0x768c>
 804a015:	83 ec 04             	sub    $0x4,%esp
 804a018:	68 ec 90 06 08       	push   $0x80690ec
 804a01d:	68 d8 4d 06 08       	push   $0x8064dd8
 804a022:	68 73 fd 04 08       	push   $0x804fd73
 804a027:	e8 24 e4 ff ff       	call   8048450 <__isoc99_scanf@plt>
 804a02c:	83 c4 10             	add    $0x10,%esp
 804a02f:	83 7d d4 00          	cmpl   $0x0,-0x2c(%ebp)
 804a033:	74 3e                	je     804a073 <main+0x1a7e>
 804a035:	83 ec 04             	sub    $0x4,%esp
 804a038:	6a 04                	push   $0x4
 804a03a:	8d 45 e0             	lea    -0x20(%ebp),%eax
 804a03d:	50                   	push   %eax
 804a03e:	68 d8 4d 06 08       	push   $0x8064dd8
 804a043:	e8 18 e4 ff ff       	call   8048460 <strncmp@plt>
 804a048:	83 c4 10             	add    $0x10,%esp
 804a04b:	85 c0                	test   %eax,%eax
 804a04d:	75 24                	jne    804a073 <main+0x1a7e>
 804a04f:	83 ec 04             	sub    $0x4,%esp
 804a052:	6a 04                	push   $0x4
 804a054:	8d 45 e0             	lea    -0x20(%ebp),%eax
 804a057:	83 c0 04             	add    $0x4,%eax
 804a05a:	50                   	push   %eax
 804a05b:	68 ec 90 06 08       	push   $0x80690ec
 804a060:	e8 fb e3 ff ff       	call   8048460 <strncmp@plt>
 804a065:	83 c4 10             	add    $0x10,%esp
 804a068:	85 c0                	test   %eax,%eax
 804a06a:	75 07                	jne    804a073 <main+0x1a7e>
 804a06c:	b8 01 00 00 00       	mov    $0x1,%eax
 804a071:	eb 05                	jmp    804a078 <main+0x1a83>
 804a073:	b8 00 00 00 00       	mov    $0x0,%eax
 804a078:	89 45 d4             	mov    %eax,-0x2c(%ebp)
 804a07b:	e9 01 5c 00 00       	jmp    804fc81 <main+0x768c>
 804a080:	81 7d dc ef be ad de 	cmpl   $0xdeadbeef,-0x24(%ebp)
 804a087:	0f 85 cb 01 00 00    	jne    804a258 <main+0x1c63>
 804a08d:	81 7d dc ef be ad de 	cmpl   $0xdeadbeef,-0x24(%ebp)
 804a094:	0f 85 df 00 00 00    	jne    804a179 <main+0x1b84>
 804a09a:	81 7d dc ef be ad de 	cmpl   $0xdeadbeef,-0x24(%ebp)
 804a0a1:	74 6b                	je     804a10e <main+0x1b19>
 804a0a3:	83 ec 04             	sub    $0x4,%esp
 804a0a6:	68 ec 90 06 08       	push   $0x80690ec
 804a0ab:	68 d8 4d 06 08       	push   $0x8064dd8
 804a0b0:	68 73 fd 04 08       	push   $0x804fd73
 804a0b5:	e8 96 e3 ff ff       	call   8048450 <__isoc99_scanf@plt>
 804a0ba:	83 c4 10             	add    $0x10,%esp
 804a0bd:	83 7d d4 00          	cmpl   $0x0,-0x2c(%ebp)
 804a0c1:	74 3e                	je     804a101 <main+0x1b0c>
 804a0c3:	83 ec 04             	sub    $0x4,%esp
 804a0c6:	6a 04                	push   $0x4
 804a0c8:	8d 45 e0             	lea    -0x20(%ebp),%eax
 804a0cb:	50                   	push   %eax
 804a0cc:	68 d8 4d 06 08       	push   $0x8064dd8
 804a0d1:	e8 8a e3 ff ff       	call   8048460 <strncmp@plt>
 804a0d6:	83 c4 10             	add    $0x10,%esp
 804a0d9:	85 c0                	test   %eax,%eax
 804a0db:	75 24                	jne    804a101 <main+0x1b0c>
 804a0dd:	83 ec 04             	sub    $0x4,%esp
 804a0e0:	6a 04                	push   $0x4
 804a0e2:	8d 45 e0             	lea    -0x20(%ebp),%eax
 804a0e5:	83 c0 04             	add    $0x4,%eax
 804a0e8:	50                   	push   %eax
 804a0e9:	68 ec 90 06 08       	push   $0x80690ec
 804a0ee:	e8 6d e3 ff ff       	call   8048460 <strncmp@plt>
 804a0f3:	83 c4 10             	add    $0x10,%esp
 804a0f6:	85 c0                	test   %eax,%eax
 804a0f8:	75 07                	jne    804a101 <main+0x1b0c>
 804a0fa:	b8 01 00 00 00       	mov    $0x1,%eax
 804a0ff:	eb 05                	jmp    804a106 <main+0x1b11>
 804a101:	b8 00 00 00 00       	mov    $0x0,%eax
 804a106:	89 45 d4             	mov    %eax,-0x2c(%ebp)
 804a109:	e9 73 5b 00 00       	jmp    804fc81 <main+0x768c>
 804a10e:	83 ec 04             	sub    $0x4,%esp
 804a111:	68 ec 90 06 08       	push   $0x80690ec
 804a116:	68 d8 4d 06 08       	push   $0x8064dd8
 804a11b:	68 73 fd 04 08       	push   $0x804fd73
 804a120:	e8 2b e3 ff ff       	call   8048450 <__isoc99_scanf@plt>
 804a125:	83 c4 10             	add    $0x10,%esp
 804a128:	83 7d d4 00          	cmpl   $0x0,-0x2c(%ebp)
 804a12c:	74 3e                	je     804a16c <main+0x1b77>
 804a12e:	83 ec 04             	sub    $0x4,%esp
 804a131:	6a 04                	push   $0x4
 804a133:	8d 45 e0             	lea    -0x20(%ebp),%eax
 804a136:	50                   	push   %eax
 804a137:	68 d8 4d 06 08       	push   $0x8064dd8
 804a13c:	e8 1f e3 ff ff       	call   8048460 <strncmp@plt>
 804a141:	83 c4 10             	add    $0x10,%esp
 804a144:	85 c0                	test   %eax,%eax
 804a146:	75 24                	jne    804a16c <main+0x1b77>
 804a148:	83 ec 04             	sub    $0x4,%esp
 804a14b:	6a 04                	push   $0x4
 804a14d:	8d 45 e0             	lea    -0x20(%ebp),%eax
 804a150:	83 c0 04             	add    $0x4,%eax
 804a153:	50                   	push   %eax
 804a154:	68 ec 90 06 08       	push   $0x80690ec
 804a159:	e8 02 e3 ff ff       	call   8048460 <strncmp@plt>
 804a15e:	83 c4 10             	add    $0x10,%esp
 804a161:	85 c0                	test   %eax,%eax
 804a163:	75 07                	jne    804a16c <main+0x1b77>
 804a165:	b8 01 00 00 00       	mov    $0x1,%eax
 804a16a:	eb 05                	jmp    804a171 <main+0x1b7c>
 804a16c:	b8 00 00 00 00       	mov    $0x0,%eax
 804a171:	89 45 d4             	mov    %eax,-0x2c(%ebp)
 804a174:	e9 08 5b 00 00       	jmp    804fc81 <main+0x768c>
 804a179:	81 7d dc ef be ad de 	cmpl   $0xdeadbeef,-0x24(%ebp)
 804a180:	75 6b                	jne    804a1ed <main+0x1bf8>
 804a182:	83 ec 04             	sub    $0x4,%esp
 804a185:	68 ec 90 06 08       	push   $0x80690ec
 804a18a:	68 d8 4d 06 08       	push   $0x8064dd8
 804a18f:	68 73 fd 04 08       	push   $0x804fd73
 804a194:	e8 b7 e2 ff ff       	call   8048450 <__isoc99_scanf@plt>
 804a199:	83 c4 10             	add    $0x10,%esp
 804a19c:	83 7d d4 00          	cmpl   $0x0,-0x2c(%ebp)
 804a1a0:	74 3e                	je     804a1e0 <main+0x1beb>
 804a1a2:	83 ec 04             	sub    $0x4,%esp
 804a1a5:	6a 04                	push   $0x4
 804a1a7:	8d 45 e0             	lea    -0x20(%ebp),%eax
 804a1aa:	50                   	push   %eax
 804a1ab:	68 d8 4d 06 08       	push   $0x8064dd8
 804a1b0:	e8 ab e2 ff ff       	call   8048460 <strncmp@plt>
 804a1b5:	83 c4 10             	add    $0x10,%esp
 804a1b8:	85 c0                	test   %eax,%eax
 804a1ba:	75 24                	jne    804a1e0 <main+0x1beb>
 804a1bc:	83 ec 04             	sub    $0x4,%esp
 804a1bf:	6a 04                	push   $0x4
 804a1c1:	8d 45 e0             	lea    -0x20(%ebp),%eax
 804a1c4:	83 c0 04             	add    $0x4,%eax
 804a1c7:	50                   	push   %eax
 804a1c8:	68 ec 90 06 08       	push   $0x80690ec
 804a1cd:	e8 8e e2 ff ff       	call   8048460 <strncmp@plt>
 804a1d2:	83 c4 10             	add    $0x10,%esp
 804a1d5:	85 c0                	test   %eax,%eax
 804a1d7:	75 07                	jne    804a1e0 <main+0x1beb>
 804a1d9:	b8 01 00 00 00       	mov    $0x1,%eax
 804a1de:	eb 05                	jmp    804a1e5 <main+0x1bf0>
 804a1e0:	b8 00 00 00 00       	mov    $0x0,%eax
 804a1e5:	89 45 d4             	mov    %eax,-0x2c(%ebp)
 804a1e8:	e9 94 5a 00 00       	jmp    804fc81 <main+0x768c>
 804a1ed:	83 ec 04             	sub    $0x4,%esp
 804a1f0:	68 ec 90 06 08       	push   $0x80690ec
 804a1f5:	68 d8 4d 06 08       	push   $0x8064dd8
 804a1fa:	68 73 fd 04 08       	push   $0x804fd73
 804a1ff:	e8 4c e2 ff ff       	call   8048450 <__isoc99_scanf@plt>
 804a204:	83 c4 10             	add    $0x10,%esp
 804a207:	83 7d d4 00          	cmpl   $0x0,-0x2c(%ebp)
 804a20b:	74 3e                	je     804a24b <main+0x1c56>
 804a20d:	83 ec 04             	sub    $0x4,%esp
 804a210:	6a 04                	push   $0x4
 804a212:	8d 45 e0             	lea    -0x20(%ebp),%eax
 804a215:	50                   	push   %eax
 804a216:	68 d8 4d 06 08       	push   $0x8064dd8
 804a21b:	e8 40 e2 ff ff       	call   8048460 <strncmp@plt>
 804a220:	83 c4 10             	add    $0x10,%esp
 804a223:	85 c0                	test   %eax,%eax
 804a225:	75 24                	jne    804a24b <main+0x1c56>
 804a227:	83 ec 04             	sub    $0x4,%esp
 804a22a:	6a 04                	push   $0x4
 804a22c:	8d 45 e0             	lea    -0x20(%ebp),%eax
 804a22f:	83 c0 04             	add    $0x4,%eax
 804a232:	50                   	push   %eax
 804a233:	68 ec 90 06 08       	push   $0x80690ec
 804a238:	e8 23 e2 ff ff       	call   8048460 <strncmp@plt>
 804a23d:	83 c4 10             	add    $0x10,%esp
 804a240:	85 c0                	test   %eax,%eax
 804a242:	75 07                	jne    804a24b <main+0x1c56>
 804a244:	b8 01 00 00 00       	mov    $0x1,%eax
 804a249:	eb 05                	jmp    804a250 <main+0x1c5b>
 804a24b:	b8 00 00 00 00       	mov    $0x0,%eax
 804a250:	89 45 d4             	mov    %eax,-0x2c(%ebp)
 804a253:	e9 29 5a 00 00       	jmp    804fc81 <main+0x768c>
 804a258:	81 7d dc ef be ad de 	cmpl   $0xdeadbeef,-0x24(%ebp)
 804a25f:	0f 85 df 00 00 00    	jne    804a344 <main+0x1d4f>
 804a265:	81 7d dc ef be ad de 	cmpl   $0xdeadbeef,-0x24(%ebp)
 804a26c:	75 6b                	jne    804a2d9 <main+0x1ce4>
 804a26e:	83 ec 04             	sub    $0x4,%esp
 804a271:	68 ec 90 06 08       	push   $0x80690ec
 804a276:	68 d8 4d 06 08       	push   $0x8064dd8
 804a27b:	68 73 fd 04 08       	push   $0x804fd73
 804a280:	e8 cb e1 ff ff       	call   8048450 <__isoc99_scanf@plt>
 804a285:	83 c4 10             	add    $0x10,%esp
 804a288:	83 7d d4 00          	cmpl   $0x0,-0x2c(%ebp)
 804a28c:	74 3e                	je     804a2cc <main+0x1cd7>
 804a28e:	83 ec 04             	sub    $0x4,%esp
 804a291:	6a 04                	push   $0x4
 804a293:	8d 45 e0             	lea    -0x20(%ebp),%eax
 804a296:	50                   	push   %eax
 804a297:	68 d8 4d 06 08       	push   $0x8064dd8
 804a29c:	e8 bf e1 ff ff       	call   8048460 <strncmp@plt>
 804a2a1:	83 c4 10             	add    $0x10,%esp
 804a2a4:	85 c0                	test   %eax,%eax
 804a2a6:	75 24                	jne    804a2cc <main+0x1cd7>
 804a2a8:	83 ec 04             	sub    $0x4,%esp
 804a2ab:	6a 04                	push   $0x4
 804a2ad:	8d 45 e0             	lea    -0x20(%ebp),%eax
 804a2b0:	83 c0 04             	add    $0x4,%eax
 804a2b3:	50                   	push   %eax
 804a2b4:	68 ec 90 06 08       	push   $0x80690ec
 804a2b9:	e8 a2 e1 ff ff       	call   8048460 <strncmp@plt>
 804a2be:	83 c4 10             	add    $0x10,%esp
 804a2c1:	85 c0                	test   %eax,%eax
 804a2c3:	75 07                	jne    804a2cc <main+0x1cd7>
 804a2c5:	b8 01 00 00 00       	mov    $0x1,%eax
 804a2ca:	eb 05                	jmp    804a2d1 <main+0x1cdc>
 804a2cc:	b8 00 00 00 00       	mov    $0x0,%eax
 804a2d1:	89 45 d4             	mov    %eax,-0x2c(%ebp)
 804a2d4:	e9 a8 59 00 00       	jmp    804fc81 <main+0x768c>
 804a2d9:	83 ec 04             	sub    $0x4,%esp
 804a2dc:	68 ec 90 06 08       	push   $0x80690ec
 804a2e1:	68 d8 4d 06 08       	push   $0x8064dd8
 804a2e6:	68 73 fd 04 08       	push   $0x804fd73
 804a2eb:	e8 60 e1 ff ff       	call   8048450 <__isoc99_scanf@plt>
 804a2f0:	83 c4 10             	add    $0x10,%esp
 804a2f3:	83 7d d4 00          	cmpl   $0x0,-0x2c(%ebp)
 804a2f7:	74 3e                	je     804a337 <main+0x1d42>
 804a2f9:	83 ec 04             	sub    $0x4,%esp
 804a2fc:	6a 04                	push   $0x4
 804a2fe:	8d 45 e0             	lea    -0x20(%ebp),%eax
 804a301:	50                   	push   %eax
 804a302:	68 d8 4d 06 08       	push   $0x8064dd8
 804a307:	e8 54 e1 ff ff       	call   8048460 <strncmp@plt>
 804a30c:	83 c4 10             	add    $0x10,%esp
 804a30f:	85 c0                	test   %eax,%eax
 804a311:	75 24                	jne    804a337 <main+0x1d42>
 804a313:	83 ec 04             	sub    $0x4,%esp
 804a316:	6a 04                	push   $0x4
 804a318:	8d 45 e0             	lea    -0x20(%ebp),%eax
 804a31b:	83 c0 04             	add    $0x4,%eax
 804a31e:	50                   	push   %eax
 804a31f:	68 ec 90 06 08       	push   $0x80690ec
 804a324:	e8 37 e1 ff ff       	call   8048460 <strncmp@plt>
 804a329:	83 c4 10             	add    $0x10,%esp
 804a32c:	85 c0                	test   %eax,%eax
 804a32e:	75 07                	jne    804a337 <main+0x1d42>
 804a330:	b8 01 00 00 00       	mov    $0x1,%eax
 804a335:	eb 05                	jmp    804a33c <main+0x1d47>
 804a337:	b8 00 00 00 00       	mov    $0x0,%eax
 804a33c:	89 45 d4             	mov    %eax,-0x2c(%ebp)
 804a33f:	e9 3d 59 00 00       	jmp    804fc81 <main+0x768c>
 804a344:	81 7d dc ef be ad de 	cmpl   $0xdeadbeef,-0x24(%ebp)
 804a34b:	74 6b                	je     804a3b8 <main+0x1dc3>
 804a34d:	83 ec 04             	sub    $0x4,%esp
 804a350:	68 ec 90 06 08       	push   $0x80690ec
 804a355:	68 d8 4d 06 08       	push   $0x8064dd8
 804a35a:	68 73 fd 04 08       	push   $0x804fd73
 804a35f:	e8 ec e0 ff ff       	call   8048450 <__isoc99_scanf@plt>
 804a364:	83 c4 10             	add    $0x10,%esp
 804a367:	83 7d d4 00          	cmpl   $0x0,-0x2c(%ebp)
 804a36b:	74 3e                	je     804a3ab <main+0x1db6>
 804a36d:	83 ec 04             	sub    $0x4,%esp
 804a370:	6a 04                	push   $0x4
 804a372:	8d 45 e0             	lea    -0x20(%ebp),%eax
 804a375:	50                   	push   %eax
 804a376:	68 d8 4d 06 08       	push   $0x8064dd8
 804a37b:	e8 e0 e0 ff ff       	call   8048460 <strncmp@plt>
 804a380:	83 c4 10             	add    $0x10,%esp
 804a383:	85 c0                	test   %eax,%eax
 804a385:	75 24                	jne    804a3ab <main+0x1db6>
 804a387:	83 ec 04             	sub    $0x4,%esp
 804a38a:	6a 04                	push   $0x4
 804a38c:	8d 45 e0             	lea    -0x20(%ebp),%eax
 804a38f:	83 c0 04             	add    $0x4,%eax
 804a392:	50                   	push   %eax
 804a393:	68 ec 90 06 08       	push   $0x80690ec
 804a398:	e8 c3 e0 ff ff       	call   8048460 <strncmp@plt>
 804a39d:	83 c4 10             	add    $0x10,%esp
 804a3a0:	85 c0                	test   %eax,%eax
 804a3a2:	75 07                	jne    804a3ab <main+0x1db6>
 804a3a4:	b8 01 00 00 00       	mov    $0x1,%eax
 804a3a9:	eb 05                	jmp    804a3b0 <main+0x1dbb>
 804a3ab:	b8 00 00 00 00       	mov    $0x0,%eax
 804a3b0:	89 45 d4             	mov    %eax,-0x2c(%ebp)
 804a3b3:	e9 c9 58 00 00       	jmp    804fc81 <main+0x768c>
 804a3b8:	83 ec 04             	sub    $0x4,%esp
 804a3bb:	68 ec 90 06 08       	push   $0x80690ec
 804a3c0:	68 d8 4d 06 08       	push   $0x8064dd8
 804a3c5:	68 73 fd 04 08       	push   $0x804fd73
 804a3ca:	e8 81 e0 ff ff       	call   8048450 <__isoc99_scanf@plt>
 804a3cf:	83 c4 10             	add    $0x10,%esp
 804a3d2:	83 7d d4 00          	cmpl   $0x0,-0x2c(%ebp)
 804a3d6:	74 3e                	je     804a416 <main+0x1e21>
 804a3d8:	83 ec 04             	sub    $0x4,%esp
 804a3db:	6a 04                	push   $0x4
 804a3dd:	8d 45 e0             	lea    -0x20(%ebp),%eax
 804a3e0:	50                   	push   %eax
 804a3e1:	68 d8 4d 06 08       	push   $0x8064dd8
 804a3e6:	e8 75 e0 ff ff       	call   8048460 <strncmp@plt>
 804a3eb:	83 c4 10             	add    $0x10,%esp
 804a3ee:	85 c0                	test   %eax,%eax
 804a3f0:	75 24                	jne    804a416 <main+0x1e21>
 804a3f2:	83 ec 04             	sub    $0x4,%esp
 804a3f5:	6a 04                	push   $0x4
 804a3f7:	8d 45 e0             	lea    -0x20(%ebp),%eax
 804a3fa:	83 c0 04             	add    $0x4,%eax
 804a3fd:	50                   	push   %eax
 804a3fe:	68 ec 90 06 08       	push   $0x80690ec
 804a403:	e8 58 e0 ff ff       	call   8048460 <strncmp@plt>
 804a408:	83 c4 10             	add    $0x10,%esp
 804a40b:	85 c0                	test   %eax,%eax
 804a40d:	75 07                	jne    804a416 <main+0x1e21>
 804a40f:	b8 01 00 00 00       	mov    $0x1,%eax
 804a414:	eb 05                	jmp    804a41b <main+0x1e26>
 804a416:	b8 00 00 00 00       	mov    $0x0,%eax
 804a41b:	89 45 d4             	mov    %eax,-0x2c(%ebp)
 804a41e:	e9 5e 58 00 00       	jmp    804fc81 <main+0x768c>
 804a423:	81 7d dc ef be ad de 	cmpl   $0xdeadbeef,-0x24(%ebp)
 804a42a:	0f 84 b3 0e 00 00    	je     804b2e3 <main+0x2cee>
 804a430:	81 7d dc ef be ad de 	cmpl   $0xdeadbeef,-0x24(%ebp)
 804a437:	0f 85 53 07 00 00    	jne    804ab90 <main+0x259b>
 804a43d:	81 7d dc ef be ad de 	cmpl   $0xdeadbeef,-0x24(%ebp)
 804a444:	0f 85 a3 03 00 00    	jne    804a7ed <main+0x21f8>
 804a44a:	81 7d dc ef be ad de 	cmpl   $0xdeadbeef,-0x24(%ebp)
 804a451:	0f 85 cb 01 00 00    	jne    804a622 <main+0x202d>
 804a457:	81 7d dc ef be ad de 	cmpl   $0xdeadbeef,-0x24(%ebp)
 804a45e:	0f 85 df 00 00 00    	jne    804a543 <main+0x1f4e>
 804a464:	81 7d dc ef be ad de 	cmpl   $0xdeadbeef,-0x24(%ebp)
 804a46b:	75 6b                	jne    804a4d8 <main+0x1ee3>
 804a46d:	83 ec 04             	sub    $0x4,%esp
 804a470:	68 ec 90 06 08       	push   $0x80690ec
 804a475:	68 d8 4d 06 08       	push   $0x8064dd8
 804a47a:	68 73 fd 04 08       	push   $0x804fd73
 804a47f:	e8 cc df ff ff       	call   8048450 <__isoc99_scanf@plt>
 804a484:	83 c4 10             	add    $0x10,%esp
 804a487:	83 7d d4 00          	cmpl   $0x0,-0x2c(%ebp)
 804a48b:	74 3e                	je     804a4cb <main+0x1ed6>
 804a48d:	83 ec 04             	sub    $0x4,%esp
 804a490:	6a 04                	push   $0x4
 804a492:	8d 45 e0             	lea    -0x20(%ebp),%eax
 804a495:	50                   	push   %eax
 804a496:	68 d8 4d 06 08       	push   $0x8064dd8
 804a49b:	e8 c0 df ff ff       	call   8048460 <strncmp@plt>
 804a4a0:	83 c4 10             	add    $0x10,%esp
 804a4a3:	85 c0                	test   %eax,%eax
 804a4a5:	75 24                	jne    804a4cb <main+0x1ed6>
 804a4a7:	83 ec 04             	sub    $0x4,%esp
 804a4aa:	6a 04                	push   $0x4
 804a4ac:	8d 45 e0             	lea    -0x20(%ebp),%eax
 804a4af:	83 c0 04             	add    $0x4,%eax
 804a4b2:	50                   	push   %eax
 804a4b3:	68 ec 90 06 08       	push   $0x80690ec
 804a4b8:	e8 a3 df ff ff       	call   8048460 <strncmp@plt>
 804a4bd:	83 c4 10             	add    $0x10,%esp
 804a4c0:	85 c0                	test   %eax,%eax
 804a4c2:	75 07                	jne    804a4cb <main+0x1ed6>
 804a4c4:	b8 01 00 00 00       	mov    $0x1,%eax
 804a4c9:	eb 05                	jmp    804a4d0 <main+0x1edb>
 804a4cb:	b8 00 00 00 00       	mov    $0x0,%eax
 804a4d0:	89 45 d4             	mov    %eax,-0x2c(%ebp)
 804a4d3:	e9 a9 57 00 00       	jmp    804fc81 <main+0x768c>
 804a4d8:	83 ec 04             	sub    $0x4,%esp
 804a4db:	68 ec 90 06 08       	push   $0x80690ec
 804a4e0:	68 d8 4d 06 08       	push   $0x8064dd8
 804a4e5:	68 73 fd 04 08       	push   $0x804fd73
 804a4ea:	e8 61 df ff ff       	call   8048450 <__isoc99_scanf@plt>
 804a4ef:	83 c4 10             	add    $0x10,%esp
 804a4f2:	83 7d d4 00          	cmpl   $0x0,-0x2c(%ebp)
 804a4f6:	74 3e                	je     804a536 <main+0x1f41>
 804a4f8:	83 ec 04             	sub    $0x4,%esp
 804a4fb:	6a 04                	push   $0x4
 804a4fd:	8d 45 e0             	lea    -0x20(%ebp),%eax
 804a500:	50                   	push   %eax
 804a501:	68 d8 4d 06 08       	push   $0x8064dd8
 804a506:	e8 55 df ff ff       	call   8048460 <strncmp@plt>
 804a50b:	83 c4 10             	add    $0x10,%esp
 804a50e:	85 c0                	test   %eax,%eax
 804a510:	75 24                	jne    804a536 <main+0x1f41>
 804a512:	83 ec 04             	sub    $0x4,%esp
 804a515:	6a 04                	push   $0x4
 804a517:	8d 45 e0             	lea    -0x20(%ebp),%eax
 804a51a:	83 c0 04             	add    $0x4,%eax
 804a51d:	50                   	push   %eax
 804a51e:	68 ec 90 06 08       	push   $0x80690ec
 804a523:	e8 38 df ff ff       	call   8048460 <strncmp@plt>
 804a528:	83 c4 10             	add    $0x10,%esp
 804a52b:	85 c0                	test   %eax,%eax
 804a52d:	75 07                	jne    804a536 <main+0x1f41>
 804a52f:	b8 01 00 00 00       	mov    $0x1,%eax
 804a534:	eb 05                	jmp    804a53b <main+0x1f46>
 804a536:	b8 00 00 00 00       	mov    $0x0,%eax
 804a53b:	89 45 d4             	mov    %eax,-0x2c(%ebp)
 804a53e:	e9 3e 57 00 00       	jmp    804fc81 <main+0x768c>
 804a543:	81 7d dc ef be ad de 	cmpl   $0xdeadbeef,-0x24(%ebp)
 804a54a:	75 6b                	jne    804a5b7 <main+0x1fc2>
 804a54c:	83 ec 04             	sub    $0x4,%esp
 804a54f:	68 ec 90 06 08       	push   $0x80690ec
 804a554:	68 d8 4d 06 08       	push   $0x8064dd8
 804a559:	68 73 fd 04 08       	push   $0x804fd73
 804a55e:	e8 ed de ff ff       	call   8048450 <__isoc99_scanf@plt>
 804a563:	83 c4 10             	add    $0x10,%esp
 804a566:	83 7d d4 00          	cmpl   $0x0,-0x2c(%ebp)
 804a56a:	74 3e                	je     804a5aa <main+0x1fb5>
 804a56c:	83 ec 04             	sub    $0x4,%esp
 804a56f:	6a 04                	push   $0x4
 804a571:	8d 45 e0             	lea    -0x20(%ebp),%eax
 804a574:	50                   	push   %eax
 804a575:	68 d8 4d 06 08       	push   $0x8064dd8
 804a57a:	e8 e1 de ff ff       	call   8048460 <strncmp@plt>
 804a57f:	83 c4 10             	add    $0x10,%esp
 804a582:	85 c0                	test   %eax,%eax
 804a584:	75 24                	jne    804a5aa <main+0x1fb5>
 804a586:	83 ec 04             	sub    $0x4,%esp
 804a589:	6a 04                	push   $0x4
 804a58b:	8d 45 e0             	lea    -0x20(%ebp),%eax
 804a58e:	83 c0 04             	add    $0x4,%eax
 804a591:	50                   	push   %eax
 804a592:	68 ec 90 06 08       	push   $0x80690ec
 804a597:	e8 c4 de ff ff       	call   8048460 <strncmp@plt>
 804a59c:	83 c4 10             	add    $0x10,%esp
 804a59f:	85 c0                	test   %eax,%eax
 804a5a1:	75 07                	jne    804a5aa <main+0x1fb5>
 804a5a3:	b8 01 00 00 00       	mov    $0x1,%eax
 804a5a8:	eb 05                	jmp    804a5af <main+0x1fba>
 804a5aa:	b8 00 00 00 00       	mov    $0x0,%eax
 804a5af:	89 45 d4             	mov    %eax,-0x2c(%ebp)
 804a5b2:	e9 ca 56 00 00       	jmp    804fc81 <main+0x768c>
 804a5b7:	83 ec 04             	sub    $0x4,%esp
 804a5ba:	68 ec 90 06 08       	push   $0x80690ec
 804a5bf:	68 d8 4d 06 08       	push   $0x8064dd8
 804a5c4:	68 73 fd 04 08       	push   $0x804fd73
 804a5c9:	e8 82 de ff ff       	call   8048450 <__isoc99_scanf@plt>
 804a5ce:	83 c4 10             	add    $0x10,%esp
 804a5d1:	83 7d d4 00          	cmpl   $0x0,-0x2c(%ebp)
 804a5d5:	74 3e                	je     804a615 <main+0x2020>
 804a5d7:	83 ec 04             	sub    $0x4,%esp
 804a5da:	6a 04                	push   $0x4
 804a5dc:	8d 45 e0             	lea    -0x20(%ebp),%eax
 804a5df:	50                   	push   %eax
 804a5e0:	68 d8 4d 06 08       	push   $0x8064dd8
 804a5e5:	e8 76 de ff ff       	call   8048460 <strncmp@plt>
 804a5ea:	83 c4 10             	add    $0x10,%esp
 804a5ed:	85 c0                	test   %eax,%eax
 804a5ef:	75 24                	jne    804a615 <main+0x2020>
 804a5f1:	83 ec 04             	sub    $0x4,%esp
 804a5f4:	6a 04                	push   $0x4
 804a5f6:	8d 45 e0             	lea    -0x20(%ebp),%eax
 804a5f9:	83 c0 04             	add    $0x4,%eax
 804a5fc:	50                   	push   %eax
 804a5fd:	68 ec 90 06 08       	push   $0x80690ec
 804a602:	e8 59 de ff ff       	call   8048460 <strncmp@plt>
 804a607:	83 c4 10             	add    $0x10,%esp
 804a60a:	85 c0                	test   %eax,%eax
 804a60c:	75 07                	jne    804a615 <main+0x2020>
 804a60e:	b8 01 00 00 00       	mov    $0x1,%eax
 804a613:	eb 05                	jmp    804a61a <main+0x2025>
 804a615:	b8 00 00 00 00       	mov    $0x0,%eax
 804a61a:	89 45 d4             	mov    %eax,-0x2c(%ebp)
 804a61d:	e9 5f 56 00 00       	jmp    804fc81 <main+0x768c>
 804a622:	81 7d dc ef be ad de 	cmpl   $0xdeadbeef,-0x24(%ebp)
 804a629:	0f 85 df 00 00 00    	jne    804a70e <main+0x2119>
 804a62f:	81 7d dc ef be ad de 	cmpl   $0xdeadbeef,-0x24(%ebp)
 804a636:	75 6b                	jne    804a6a3 <main+0x20ae>
 804a638:	83 ec 04             	sub    $0x4,%esp
 804a63b:	68 ec 90 06 08       	push   $0x80690ec
 804a640:	68 d8 4d 06 08       	push   $0x8064dd8
 804a645:	68 73 fd 04 08       	push   $0x804fd73
 804a64a:	e8 01 de ff ff       	call   8048450 <__isoc99_scanf@plt>
 804a64f:	83 c4 10             	add    $0x10,%esp
 804a652:	83 7d d4 00          	cmpl   $0x0,-0x2c(%ebp)
 804a656:	74 3e                	je     804a696 <main+0x20a1>
 804a658:	83 ec 04             	sub    $0x4,%esp
 804a65b:	6a 04                	push   $0x4
 804a65d:	8d 45 e0             	lea    -0x20(%ebp),%eax
 804a660:	50                   	push   %eax
 804a661:	68 d8 4d 06 08       	push   $0x8064dd8
 804a666:	e8 f5 dd ff ff       	call   8048460 <strncmp@plt>
 804a66b:	83 c4 10             	add    $0x10,%esp
 804a66e:	85 c0                	test   %eax,%eax
 804a670:	75 24                	jne    804a696 <main+0x20a1>
 804a672:	83 ec 04             	sub    $0x4,%esp
 804a675:	6a 04                	push   $0x4
 804a677:	8d 45 e0             	lea    -0x20(%ebp),%eax
 804a67a:	83 c0 04             	add    $0x4,%eax
 804a67d:	50                   	push   %eax
 804a67e:	68 ec 90 06 08       	push   $0x80690ec
 804a683:	e8 d8 dd ff ff       	call   8048460 <strncmp@plt>
 804a688:	83 c4 10             	add    $0x10,%esp
 804a68b:	85 c0                	test   %eax,%eax
 804a68d:	75 07                	jne    804a696 <main+0x20a1>
 804a68f:	b8 01 00 00 00       	mov    $0x1,%eax
 804a694:	eb 05                	jmp    804a69b <main+0x20a6>
 804a696:	b8 00 00 00 00       	mov    $0x0,%eax
 804a69b:	89 45 d4             	mov    %eax,-0x2c(%ebp)
 804a69e:	e9 de 55 00 00       	jmp    804fc81 <main+0x768c>
 804a6a3:	83 ec 04             	sub    $0x4,%esp
 804a6a6:	68 ec 90 06 08       	push   $0x80690ec
 804a6ab:	68 d8 4d 06 08       	push   $0x8064dd8
 804a6b0:	68 73 fd 04 08       	push   $0x804fd73
 804a6b5:	e8 96 dd ff ff       	call   8048450 <__isoc99_scanf@plt>
 804a6ba:	83 c4 10             	add    $0x10,%esp
 804a6bd:	83 7d d4 00          	cmpl   $0x0,-0x2c(%ebp)
 804a6c1:	74 3e                	je     804a701 <main+0x210c>
 804a6c3:	83 ec 04             	sub    $0x4,%esp
 804a6c6:	6a 04                	push   $0x4
 804a6c8:	8d 45 e0             	lea    -0x20(%ebp),%eax
 804a6cb:	50                   	push   %eax
 804a6cc:	68 d8 4d 06 08       	push   $0x8064dd8
 804a6d1:	e8 8a dd ff ff       	call   8048460 <strncmp@plt>
 804a6d6:	83 c4 10             	add    $0x10,%esp
 804a6d9:	85 c0                	test   %eax,%eax
 804a6db:	75 24                	jne    804a701 <main+0x210c>
 804a6dd:	83 ec 04             	sub    $0x4,%esp
 804a6e0:	6a 04                	push   $0x4
 804a6e2:	8d 45 e0             	lea    -0x20(%ebp),%eax
 804a6e5:	83 c0 04             	add    $0x4,%eax
 804a6e8:	50                   	push   %eax
 804a6e9:	68 ec 90 06 08       	push   $0x80690ec
 804a6ee:	e8 6d dd ff ff       	call   8048460 <strncmp@plt>
 804a6f3:	83 c4 10             	add    $0x10,%esp
 804a6f6:	85 c0                	test   %eax,%eax
 804a6f8:	75 07                	jne    804a701 <main+0x210c>
 804a6fa:	b8 01 00 00 00       	mov    $0x1,%eax
 804a6ff:	eb 05                	jmp    804a706 <main+0x2111>
 804a701:	b8 00 00 00 00       	mov    $0x0,%eax
 804a706:	89 45 d4             	mov    %eax,-0x2c(%ebp)
 804a709:	e9 73 55 00 00       	jmp    804fc81 <main+0x768c>
 804a70e:	81 7d dc ef be ad de 	cmpl   $0xdeadbeef,-0x24(%ebp)
 804a715:	74 6b                	je     804a782 <main+0x218d>
 804a717:	83 ec 04             	sub    $0x4,%esp
 804a71a:	68 ec 90 06 08       	push   $0x80690ec
 804a71f:	68 d8 4d 06 08       	push   $0x8064dd8
 804a724:	68 73 fd 04 08       	push   $0x804fd73
 804a729:	e8 22 dd ff ff       	call   8048450 <__isoc99_scanf@plt>
 804a72e:	83 c4 10             	add    $0x10,%esp
 804a731:	83 7d d4 00          	cmpl   $0x0,-0x2c(%ebp)
 804a735:	74 3e                	je     804a775 <main+0x2180>
 804a737:	83 ec 04             	sub    $0x4,%esp
 804a73a:	6a 04                	push   $0x4
 804a73c:	8d 45 e0             	lea    -0x20(%ebp),%eax
 804a73f:	50                   	push   %eax
 804a740:	68 d8 4d 06 08       	push   $0x8064dd8
 804a745:	e8 16 dd ff ff       	call   8048460 <strncmp@plt>
 804a74a:	83 c4 10             	add    $0x10,%esp
 804a74d:	85 c0                	test   %eax,%eax
 804a74f:	75 24                	jne    804a775 <main+0x2180>
 804a751:	83 ec 04             	sub    $0x4,%esp
 804a754:	6a 04                	push   $0x4
 804a756:	8d 45 e0             	lea    -0x20(%ebp),%eax
 804a759:	83 c0 04             	add    $0x4,%eax
 804a75c:	50                   	push   %eax
 804a75d:	68 ec 90 06 08       	push   $0x80690ec
 804a762:	e8 f9 dc ff ff       	call   8048460 <strncmp@plt>
 804a767:	83 c4 10             	add    $0x10,%esp
 804a76a:	85 c0                	test   %eax,%eax
 804a76c:	75 07                	jne    804a775 <main+0x2180>
 804a76e:	b8 01 00 00 00       	mov    $0x1,%eax
 804a773:	eb 05                	jmp    804a77a <main+0x2185>
 804a775:	b8 00 00 00 00       	mov    $0x0,%eax
 804a77a:	89 45 d4             	mov    %eax,-0x2c(%ebp)
 804a77d:	e9 ff 54 00 00       	jmp    804fc81 <main+0x768c>
 804a782:	83 ec 04             	sub    $0x4,%esp
 804a785:	68 ec 90 06 08       	push   $0x80690ec
 804a78a:	68 d8 4d 06 08       	push   $0x8064dd8
 804a78f:	68 73 fd 04 08       	push   $0x804fd73
 804a794:	e8 b7 dc ff ff       	call   8048450 <__isoc99_scanf@plt>
 804a799:	83 c4 10             	add    $0x10,%esp
 804a79c:	83 7d d4 00          	cmpl   $0x0,-0x2c(%ebp)
 804a7a0:	74 3e                	je     804a7e0 <main+0x21eb>
 804a7a2:	83 ec 04             	sub    $0x4,%esp
 804a7a5:	6a 04                	push   $0x4
 804a7a7:	8d 45 e0             	lea    -0x20(%ebp),%eax
 804a7aa:	50                   	push   %eax
 804a7ab:	68 d8 4d 06 08       	push   $0x8064dd8
 804a7b0:	e8 ab dc ff ff       	call   8048460 <strncmp@plt>
 804a7b5:	83 c4 10             	add    $0x10,%esp
 804a7b8:	85 c0                	test   %eax,%eax
 804a7ba:	75 24                	jne    804a7e0 <main+0x21eb>
 804a7bc:	83 ec 04             	sub    $0x4,%esp
 804a7bf:	6a 04                	push   $0x4
 804a7c1:	8d 45 e0             	lea    -0x20(%ebp),%eax
 804a7c4:	83 c0 04             	add    $0x4,%eax
 804a7c7:	50                   	push   %eax
 804a7c8:	68 ec 90 06 08       	push   $0x80690ec
 804a7cd:	e8 8e dc ff ff       	call   8048460 <strncmp@plt>
 804a7d2:	83 c4 10             	add    $0x10,%esp
 804a7d5:	85 c0                	test   %eax,%eax
 804a7d7:	75 07                	jne    804a7e0 <main+0x21eb>
 804a7d9:	b8 01 00 00 00       	mov    $0x1,%eax
 804a7de:	eb 05                	jmp    804a7e5 <main+0x21f0>
 804a7e0:	b8 00 00 00 00       	mov    $0x0,%eax
 804a7e5:	89 45 d4             	mov    %eax,-0x2c(%ebp)
 804a7e8:	e9 94 54 00 00       	jmp    804fc81 <main+0x768c>
 804a7ed:	81 7d dc ef be ad de 	cmpl   $0xdeadbeef,-0x24(%ebp)
 804a7f4:	0f 85 cb 01 00 00    	jne    804a9c5 <main+0x23d0>
 804a7fa:	81 7d dc ef be ad de 	cmpl   $0xdeadbeef,-0x24(%ebp)
 804a801:	0f 84 df 00 00 00    	je     804a8e6 <main+0x22f1>
 804a807:	81 7d dc ef be ad de 	cmpl   $0xdeadbeef,-0x24(%ebp)
 804a80e:	74 6b                	je     804a87b <main+0x2286>
 804a810:	83 ec 04             	sub    $0x4,%esp
 804a813:	68 ec 90 06 08       	push   $0x80690ec
 804a818:	68 d8 4d 06 08       	push   $0x8064dd8
 804a81d:	68 73 fd 04 08       	push   $0x804fd73
 804a822:	e8 29 dc ff ff       	call   8048450 <__isoc99_scanf@plt>
 804a827:	83 c4 10             	add    $0x10,%esp
 804a82a:	83 7d d4 00          	cmpl   $0x0,-0x2c(%ebp)
 804a82e:	74 3e                	je     804a86e <main+0x2279>
 804a830:	83 ec 04             	sub    $0x4,%esp
 804a833:	6a 04                	push   $0x4
 804a835:	8d 45 e0             	lea    -0x20(%ebp),%eax
 804a838:	50                   	push   %eax
 804a839:	68 d8 4d 06 08       	push   $0x8064dd8
 804a83e:	e8 1d dc ff ff       	call   8048460 <strncmp@plt>
 804a843:	83 c4 10             	add    $0x10,%esp
 804a846:	85 c0                	test   %eax,%eax
 804a848:	75 24                	jne    804a86e <main+0x2279>
 804a84a:	83 ec 04             	sub    $0x4,%esp
 804a84d:	6a 04                	push   $0x4
 804a84f:	8d 45 e0             	lea    -0x20(%ebp),%eax
 804a852:	83 c0 04             	add    $0x4,%eax
 804a855:	50                   	push   %eax
 804a856:	68 ec 90 06 08       	push   $0x80690ec
 804a85b:	e8 00 dc ff ff       	call   8048460 <strncmp@plt>
 804a860:	83 c4 10             	add    $0x10,%esp
 804a863:	85 c0                	test   %eax,%eax
 804a865:	75 07                	jne    804a86e <main+0x2279>
 804a867:	b8 01 00 00 00       	mov    $0x1,%eax
 804a86c:	eb 05                	jmp    804a873 <main+0x227e>
 804a86e:	b8 00 00 00 00       	mov    $0x0,%eax
 804a873:	89 45 d4             	mov    %eax,-0x2c(%ebp)
 804a876:	e9 06 54 00 00       	jmp    804fc81 <main+0x768c>
 804a87b:	83 ec 04             	sub    $0x4,%esp
 804a87e:	68 ec 90 06 08       	push   $0x80690ec
 804a883:	68 d8 4d 06 08       	push   $0x8064dd8
 804a888:	68 73 fd 04 08       	push   $0x804fd73
 804a88d:	e8 be db ff ff       	call   8048450 <__isoc99_scanf@plt>
 804a892:	83 c4 10             	add    $0x10,%esp
 804a895:	83 7d d4 00          	cmpl   $0x0,-0x2c(%ebp)
 804a899:	74 3e                	je     804a8d9 <main+0x22e4>
 804a89b:	83 ec 04             	sub    $0x4,%esp
 804a89e:	6a 04                	push   $0x4
 804a8a0:	8d 45 e0             	lea    -0x20(%ebp),%eax
 804a8a3:	50                   	push   %eax
 804a8a4:	68 d8 4d 06 08       	push   $0x8064dd8
 804a8a9:	e8 b2 db ff ff       	call   8048460 <strncmp@plt>
 804a8ae:	83 c4 10             	add    $0x10,%esp
 804a8b1:	85 c0                	test   %eax,%eax
 804a8b3:	75 24                	jne    804a8d9 <main+0x22e4>
 804a8b5:	83 ec 04             	sub    $0x4,%esp
 804a8b8:	6a 04                	push   $0x4
 804a8ba:	8d 45 e0             	lea    -0x20(%ebp),%eax
 804a8bd:	83 c0 04             	add    $0x4,%eax
 804a8c0:	50                   	push   %eax
 804a8c1:	68 ec 90 06 08       	push   $0x80690ec
 804a8c6:	e8 95 db ff ff       	call   8048460 <strncmp@plt>
 804a8cb:	83 c4 10             	add    $0x10,%esp
 804a8ce:	85 c0                	test   %eax,%eax
 804a8d0:	75 07                	jne    804a8d9 <main+0x22e4>
 804a8d2:	b8 01 00 00 00       	mov    $0x1,%eax
 804a8d7:	eb 05                	jmp    804a8de <main+0x22e9>
 804a8d9:	b8 00 00 00 00       	mov    $0x0,%eax
 804a8de:	89 45 d4             	mov    %eax,-0x2c(%ebp)
 804a8e1:	e9 9b 53 00 00       	jmp    804fc81 <main+0x768c>
 804a8e6:	81 7d dc ef be ad de 	cmpl   $0xdeadbeef,-0x24(%ebp)
 804a8ed:	74 6b                	je     804a95a <main+0x2365>
 804a8ef:	83 ec 04             	sub    $0x4,%esp
 804a8f2:	68 ec 90 06 08       	push   $0x80690ec
 804a8f7:	68 d8 4d 06 08       	push   $0x8064dd8
 804a8fc:	68 73 fd 04 08       	push   $0x804fd73
 804a901:	e8 4a db ff ff       	call   8048450 <__isoc99_scanf@plt>
 804a906:	83 c4 10             	add    $0x10,%esp
 804a909:	83 7d d4 00          	cmpl   $0x0,-0x2c(%ebp)
 804a90d:	74 3e                	je     804a94d <main+0x2358>
 804a90f:	83 ec 04             	sub    $0x4,%esp
 804a912:	6a 04                	push   $0x4
 804a914:	8d 45 e0             	lea    -0x20(%ebp),%eax
 804a917:	50                   	push   %eax
 804a918:	68 d8 4d 06 08       	push   $0x8064dd8
 804a91d:	e8 3e db ff ff       	call   8048460 <strncmp@plt>
 804a922:	83 c4 10             	add    $0x10,%esp
 804a925:	85 c0                	test   %eax,%eax
 804a927:	75 24                	jne    804a94d <main+0x2358>
 804a929:	83 ec 04             	sub    $0x4,%esp
 804a92c:	6a 04                	push   $0x4
 804a92e:	8d 45 e0             	lea    -0x20(%ebp),%eax
 804a931:	83 c0 04             	add    $0x4,%eax
 804a934:	50                   	push   %eax
 804a935:	68 ec 90 06 08       	push   $0x80690ec
 804a93a:	e8 21 db ff ff       	call   8048460 <strncmp@plt>
 804a93f:	83 c4 10             	add    $0x10,%esp
 804a942:	85 c0                	test   %eax,%eax
 804a944:	75 07                	jne    804a94d <main+0x2358>
 804a946:	b8 01 00 00 00       	mov    $0x1,%eax
 804a94b:	eb 05                	jmp    804a952 <main+0x235d>
 804a94d:	b8 00 00 00 00       	mov    $0x0,%eax
 804a952:	89 45 d4             	mov    %eax,-0x2c(%ebp)
 804a955:	e9 27 53 00 00       	jmp    804fc81 <main+0x768c>
 804a95a:	83 ec 04             	sub    $0x4,%esp
 804a95d:	68 ec 90 06 08       	push   $0x80690ec
 804a962:	68 d8 4d 06 08       	push   $0x8064dd8
 804a967:	68 73 fd 04 08       	push   $0x804fd73
 804a96c:	e8 df da ff ff       	call   8048450 <__isoc99_scanf@plt>
 804a971:	83 c4 10             	add    $0x10,%esp
 804a974:	83 7d d4 00          	cmpl   $0x0,-0x2c(%ebp)
 804a978:	74 3e                	je     804a9b8 <main+0x23c3>
 804a97a:	83 ec 04             	sub    $0x4,%esp
 804a97d:	6a 04                	push   $0x4
 804a97f:	8d 45 e0             	lea    -0x20(%ebp),%eax
 804a982:	50                   	push   %eax
 804a983:	68 d8 4d 06 08       	push   $0x8064dd8
 804a988:	e8 d3 da ff ff       	call   8048460 <strncmp@plt>
 804a98d:	83 c4 10             	add    $0x10,%esp
 804a990:	85 c0                	test   %eax,%eax
 804a992:	75 24                	jne    804a9b8 <main+0x23c3>
 804a994:	83 ec 04             	sub    $0x4,%esp
 804a997:	6a 04                	push   $0x4
 804a999:	8d 45 e0             	lea    -0x20(%ebp),%eax
 804a99c:	83 c0 04             	add    $0x4,%eax
 804a99f:	50                   	push   %eax
 804a9a0:	68 ec 90 06 08       	push   $0x80690ec
 804a9a5:	e8 b6 da ff ff       	call   8048460 <strncmp@plt>
 804a9aa:	83 c4 10             	add    $0x10,%esp
 804a9ad:	85 c0                	test   %eax,%eax
 804a9af:	75 07                	jne    804a9b8 <main+0x23c3>
 804a9b1:	b8 01 00 00 00       	mov    $0x1,%eax
 804a9b6:	eb 05                	jmp    804a9bd <main+0x23c8>
 804a9b8:	b8 00 00 00 00       	mov    $0x0,%eax
 804a9bd:	89 45 d4             	mov    %eax,-0x2c(%ebp)
 804a9c0:	e9 bc 52 00 00       	jmp    804fc81 <main+0x768c>
 804a9c5:	81 7d dc ef be ad de 	cmpl   $0xdeadbeef,-0x24(%ebp)
 804a9cc:	0f 85 df 00 00 00    	jne    804aab1 <main+0x24bc>
 804a9d2:	81 7d dc ef be ad de 	cmpl   $0xdeadbeef,-0x24(%ebp)
 804a9d9:	74 6b                	je     804aa46 <main+0x2451>
 804a9db:	83 ec 04             	sub    $0x4,%esp
 804a9de:	68 ec 90 06 08       	push   $0x80690ec
 804a9e3:	68 d8 4d 06 08       	push   $0x8064dd8
 804a9e8:	68 73 fd 04 08       	push   $0x804fd73
 804a9ed:	e8 5e da ff ff       	call   8048450 <__isoc99_scanf@plt>
 804a9f2:	83 c4 10             	add    $0x10,%esp
 804a9f5:	83 7d d4 00          	cmpl   $0x0,-0x2c(%ebp)
 804a9f9:	74 3e                	je     804aa39 <main+0x2444>
 804a9fb:	83 ec 04             	sub    $0x4,%esp
 804a9fe:	6a 04                	push   $0x4
 804aa00:	8d 45 e0             	lea    -0x20(%ebp),%eax
 804aa03:	50                   	push   %eax
 804aa04:	68 d8 4d 06 08       	push   $0x8064dd8
 804aa09:	e8 52 da ff ff       	call   8048460 <strncmp@plt>
 804aa0e:	83 c4 10             	add    $0x10,%esp
 804aa11:	85 c0                	test   %eax,%eax
 804aa13:	75 24                	jne    804aa39 <main+0x2444>
 804aa15:	83 ec 04             	sub    $0x4,%esp
 804aa18:	6a 04                	push   $0x4
 804aa1a:	8d 45 e0             	lea    -0x20(%ebp),%eax
 804aa1d:	83 c0 04             	add    $0x4,%eax
 804aa20:	50                   	push   %eax
 804aa21:	68 ec 90 06 08       	push   $0x80690ec
 804aa26:	e8 35 da ff ff       	call   8048460 <strncmp@plt>
 804aa2b:	83 c4 10             	add    $0x10,%esp
 804aa2e:	85 c0                	test   %eax,%eax
 804aa30:	75 07                	jne    804aa39 <main+0x2444>
 804aa32:	b8 01 00 00 00       	mov    $0x1,%eax
 804aa37:	eb 05                	jmp    804aa3e <main+0x2449>
 804aa39:	b8 00 00 00 00       	mov    $0x0,%eax
 804aa3e:	89 45 d4             	mov    %eax,-0x2c(%ebp)
 804aa41:	e9 3b 52 00 00       	jmp    804fc81 <main+0x768c>
 804aa46:	83 ec 04             	sub    $0x4,%esp
 804aa49:	68 ec 90 06 08       	push   $0x80690ec
 804aa4e:	68 d8 4d 06 08       	push   $0x8064dd8
 804aa53:	68 73 fd 04 08       	push   $0x804fd73
 804aa58:	e8 f3 d9 ff ff       	call   8048450 <__isoc99_scanf@plt>
 804aa5d:	83 c4 10             	add    $0x10,%esp
 804aa60:	83 7d d4 00          	cmpl   $0x0,-0x2c(%ebp)
 804aa64:	74 3e                	je     804aaa4 <main+0x24af>
 804aa66:	83 ec 04             	sub    $0x4,%esp
 804aa69:	6a 04                	push   $0x4
 804aa6b:	8d 45 e0             	lea    -0x20(%ebp),%eax
 804aa6e:	50                   	push   %eax
 804aa6f:	68 d8 4d 06 08       	push   $0x8064dd8
 804aa74:	e8 e7 d9 ff ff       	call   8048460 <strncmp@plt>
 804aa79:	83 c4 10             	add    $0x10,%esp
 804aa7c:	85 c0                	test   %eax,%eax
 804aa7e:	75 24                	jne    804aaa4 <main+0x24af>
 804aa80:	83 ec 04             	sub    $0x4,%esp
 804aa83:	6a 04                	push   $0x4
 804aa85:	8d 45 e0             	lea    -0x20(%ebp),%eax
 804aa88:	83 c0 04             	add    $0x4,%eax
 804aa8b:	50                   	push   %eax
 804aa8c:	68 ec 90 06 08       	push   $0x80690ec
 804aa91:	e8 ca d9 ff ff       	call   8048460 <strncmp@plt>
 804aa96:	83 c4 10             	add    $0x10,%esp
 804aa99:	85 c0                	test   %eax,%eax
 804aa9b:	75 07                	jne    804aaa4 <main+0x24af>
 804aa9d:	b8 01 00 00 00       	mov    $0x1,%eax
 804aaa2:	eb 05                	jmp    804aaa9 <main+0x24b4>
 804aaa4:	b8 00 00 00 00       	mov    $0x0,%eax
 804aaa9:	89 45 d4             	mov    %eax,-0x2c(%ebp)
 804aaac:	e9 d0 51 00 00       	jmp    804fc81 <main+0x768c>
 804aab1:	81 7d dc ef be ad de 	cmpl   $0xdeadbeef,-0x24(%ebp)
 804aab8:	74 6b                	je     804ab25 <main+0x2530>
 804aaba:	83 ec 04             	sub    $0x4,%esp
 804aabd:	68 ec 90 06 08       	push   $0x80690ec
 804aac2:	68 d8 4d 06 08       	push   $0x8064dd8
 804aac7:	68 73 fd 04 08       	push   $0x804fd73
 804aacc:	e8 7f d9 ff ff       	call   8048450 <__isoc99_scanf@plt>
 804aad1:	83 c4 10             	add    $0x10,%esp
 804aad4:	83 7d d4 00          	cmpl   $0x0,-0x2c(%ebp)
 804aad8:	74 3e                	je     804ab18 <main+0x2523>
 804aada:	83 ec 04             	sub    $0x4,%esp
 804aadd:	6a 04                	push   $0x4
 804aadf:	8d 45 e0             	lea    -0x20(%ebp),%eax
 804aae2:	50                   	push   %eax
 804aae3:	68 d8 4d 06 08       	push   $0x8064dd8
 804aae8:	e8 73 d9 ff ff       	call   8048460 <strncmp@plt>
 804aaed:	83 c4 10             	add    $0x10,%esp
 804aaf0:	85 c0                	test   %eax,%eax
 804aaf2:	75 24                	jne    804ab18 <main+0x2523>
 804aaf4:	83 ec 04             	sub    $0x4,%esp
 804aaf7:	6a 04                	push   $0x4
 804aaf9:	8d 45 e0             	lea    -0x20(%ebp),%eax
 804aafc:	83 c0 04             	add    $0x4,%eax
 804aaff:	50                   	push   %eax
 804ab00:	68 ec 90 06 08       	push   $0x80690ec
 804ab05:	e8 56 d9 ff ff       	call   8048460 <strncmp@plt>
 804ab0a:	83 c4 10             	add    $0x10,%esp
 804ab0d:	85 c0                	test   %eax,%eax
 804ab0f:	75 07                	jne    804ab18 <main+0x2523>
 804ab11:	b8 01 00 00 00       	mov    $0x1,%eax
 804ab16:	eb 05                	jmp    804ab1d <main+0x2528>
 804ab18:	b8 00 00 00 00       	mov    $0x0,%eax
 804ab1d:	89 45 d4             	mov    %eax,-0x2c(%ebp)
 804ab20:	e9 5c 51 00 00       	jmp    804fc81 <main+0x768c>
 804ab25:	83 ec 04             	sub    $0x4,%esp
 804ab28:	68 ec 90 06 08       	push   $0x80690ec
 804ab2d:	68 d8 4d 06 08       	push   $0x8064dd8
 804ab32:	68 73 fd 04 08       	push   $0x804fd73
 804ab37:	e8 14 d9 ff ff       	call   8048450 <__isoc99_scanf@plt>
 804ab3c:	83 c4 10             	add    $0x10,%esp
 804ab3f:	83 7d d4 00          	cmpl   $0x0,-0x2c(%ebp)
 804ab43:	74 3e                	je     804ab83 <main+0x258e>
 804ab45:	83 ec 04             	sub    $0x4,%esp
 804ab48:	6a 04                	push   $0x4
 804ab4a:	8d 45 e0             	lea    -0x20(%ebp),%eax
 804ab4d:	50                   	push   %eax
 804ab4e:	68 d8 4d 06 08       	push   $0x8064dd8
 804ab53:	e8 08 d9 ff ff       	call   8048460 <strncmp@plt>
 804ab58:	83 c4 10             	add    $0x10,%esp
 804ab5b:	85 c0                	test   %eax,%eax
 804ab5d:	75 24                	jne    804ab83 <main+0x258e>
 804ab5f:	83 ec 04             	sub    $0x4,%esp
 804ab62:	6a 04                	push   $0x4
 804ab64:	8d 45 e0             	lea    -0x20(%ebp),%eax
 804ab67:	83 c0 04             	add    $0x4,%eax
 804ab6a:	50                   	push   %eax
 804ab6b:	68 ec 90 06 08       	push   $0x80690ec
 804ab70:	e8 eb d8 ff ff       	call   8048460 <strncmp@plt>
 804ab75:	83 c4 10             	add    $0x10,%esp
 804ab78:	85 c0                	test   %eax,%eax
 804ab7a:	75 07                	jne    804ab83 <main+0x258e>
 804ab7c:	b8 01 00 00 00       	mov    $0x1,%eax
 804ab81:	eb 05                	jmp    804ab88 <main+0x2593>
 804ab83:	b8 00 00 00 00       	mov    $0x0,%eax
 804ab88:	89 45 d4             	mov    %eax,-0x2c(%ebp)
 804ab8b:	e9 f1 50 00 00       	jmp    804fc81 <main+0x768c>
 804ab90:	81 7d dc ef be ad de 	cmpl   $0xdeadbeef,-0x24(%ebp)
 804ab97:	0f 84 a3 03 00 00    	je     804af40 <main+0x294b>
 804ab9d:	81 7d dc ef be ad de 	cmpl   $0xdeadbeef,-0x24(%ebp)
 804aba4:	0f 85 cb 01 00 00    	jne    804ad75 <main+0x2780>
 804abaa:	81 7d dc ef be ad de 	cmpl   $0xdeadbeef,-0x24(%ebp)
 804abb1:	0f 84 df 00 00 00    	je     804ac96 <main+0x26a1>
 804abb7:	81 7d dc ef be ad de 	cmpl   $0xdeadbeef,-0x24(%ebp)
 804abbe:	74 6b                	je     804ac2b <main+0x2636>
 804abc0:	83 ec 04             	sub    $0x4,%esp
 804abc3:	68 ec 90 06 08       	push   $0x80690ec
 804abc8:	68 d8 4d 06 08       	push   $0x8064dd8
 804abcd:	68 73 fd 04 08       	push   $0x804fd73
 804abd2:	e8 79 d8 ff ff       	call   8048450 <__isoc99_scanf@plt>
 804abd7:	83 c4 10             	add    $0x10,%esp
 804abda:	83 7d d4 00          	cmpl   $0x0,-0x2c(%ebp)
 804abde:	74 3e                	je     804ac1e <main+0x2629>
 804abe0:	83 ec 04             	sub    $0x4,%esp
 804abe3:	6a 04                	push   $0x4
 804abe5:	8d 45 e0             	lea    -0x20(%ebp),%eax
 804abe8:	50                   	push   %eax
 804abe9:	68 d8 4d 06 08       	push   $0x8064dd8
 804abee:	e8 6d d8 ff ff       	call   8048460 <strncmp@plt>
 804abf3:	83 c4 10             	add    $0x10,%esp
 804abf6:	85 c0                	test   %eax,%eax
 804abf8:	75 24                	jne    804ac1e <main+0x2629>
 804abfa:	83 ec 04             	sub    $0x4,%esp
 804abfd:	6a 04                	push   $0x4
 804abff:	8d 45 e0             	lea    -0x20(%ebp),%eax
 804ac02:	83 c0 04             	add    $0x4,%eax
 804ac05:	50                   	push   %eax
 804ac06:	68 ec 90 06 08       	push   $0x80690ec
 804ac0b:	e8 50 d8 ff ff       	call   8048460 <strncmp@plt>
 804ac10:	83 c4 10             	add    $0x10,%esp
 804ac13:	85 c0                	test   %eax,%eax
 804ac15:	75 07                	jne    804ac1e <main+0x2629>
 804ac17:	b8 01 00 00 00       	mov    $0x1,%eax
 804ac1c:	eb 05                	jmp    804ac23 <main+0x262e>
 804ac1e:	b8 00 00 00 00       	mov    $0x0,%eax
 804ac23:	89 45 d4             	mov    %eax,-0x2c(%ebp)
 804ac26:	e9 56 50 00 00       	jmp    804fc81 <main+0x768c>
 804ac2b:	83 ec 04             	sub    $0x4,%esp
 804ac2e:	68 ec 90 06 08       	push   $0x80690ec
 804ac33:	68 d8 4d 06 08       	push   $0x8064dd8
 804ac38:	68 73 fd 04 08       	push   $0x804fd73
 804ac3d:	e8 0e d8 ff ff       	call   8048450 <__isoc99_scanf@plt>
 804ac42:	83 c4 10             	add    $0x10,%esp
 804ac45:	83 7d d4 00          	cmpl   $0x0,-0x2c(%ebp)
 804ac49:	74 3e                	je     804ac89 <main+0x2694>
 804ac4b:	83 ec 04             	sub    $0x4,%esp
 804ac4e:	6a 04                	push   $0x4
 804ac50:	8d 45 e0             	lea    -0x20(%ebp),%eax
 804ac53:	50                   	push   %eax
 804ac54:	68 d8 4d 06 08       	push   $0x8064dd8
 804ac59:	e8 02 d8 ff ff       	call   8048460 <strncmp@plt>
 804ac5e:	83 c4 10             	add    $0x10,%esp
 804ac61:	85 c0                	test   %eax,%eax
 804ac63:	75 24                	jne    804ac89 <main+0x2694>
 804ac65:	83 ec 04             	sub    $0x4,%esp
 804ac68:	6a 04                	push   $0x4
 804ac6a:	8d 45 e0             	lea    -0x20(%ebp),%eax
 804ac6d:	83 c0 04             	add    $0x4,%eax
 804ac70:	50                   	push   %eax
 804ac71:	68 ec 90 06 08       	push   $0x80690ec
 804ac76:	e8 e5 d7 ff ff       	call   8048460 <strncmp@plt>
 804ac7b:	83 c4 10             	add    $0x10,%esp
 804ac7e:	85 c0                	test   %eax,%eax
 804ac80:	75 07                	jne    804ac89 <main+0x2694>
 804ac82:	b8 01 00 00 00       	mov    $0x1,%eax
 804ac87:	eb 05                	jmp    804ac8e <main+0x2699>
 804ac89:	b8 00 00 00 00       	mov    $0x0,%eax
 804ac8e:	89 45 d4             	mov    %eax,-0x2c(%ebp)
 804ac91:	e9 eb 4f 00 00       	jmp    804fc81 <main+0x768c>
 804ac96:	81 7d dc ef be ad de 	cmpl   $0xdeadbeef,-0x24(%ebp)
 804ac9d:	74 6b                	je     804ad0a <main+0x2715>
 804ac9f:	83 ec 04             	sub    $0x4,%esp
 804aca2:	68 ec 90 06 08       	push   $0x80690ec
 804aca7:	68 d8 4d 06 08       	push   $0x8064dd8
 804acac:	68 73 fd 04 08       	push   $0x804fd73
 804acb1:	e8 9a d7 ff ff       	call   8048450 <__isoc99_scanf@plt>
 804acb6:	83 c4 10             	add    $0x10,%esp
 804acb9:	83 7d d4 00          	cmpl   $0x0,-0x2c(%ebp)
 804acbd:	74 3e                	je     804acfd <main+0x2708>
 804acbf:	83 ec 04             	sub    $0x4,%esp
 804acc2:	6a 04                	push   $0x4
 804acc4:	8d 45 e0             	lea    -0x20(%ebp),%eax
 804acc7:	50                   	push   %eax
 804acc8:	68 d8 4d 06 08       	push   $0x8064dd8
 804accd:	e8 8e d7 ff ff       	call   8048460 <strncmp@plt>
 804acd2:	83 c4 10             	add    $0x10,%esp
 804acd5:	85 c0                	test   %eax,%eax
 804acd7:	75 24                	jne    804acfd <main+0x2708>
 804acd9:	83 ec 04             	sub    $0x4,%esp
 804acdc:	6a 04                	push   $0x4
 804acde:	8d 45 e0             	lea    -0x20(%ebp),%eax
 804ace1:	83 c0 04             	add    $0x4,%eax
 804ace4:	50                   	push   %eax
 804ace5:	68 ec 90 06 08       	push   $0x80690ec
 804acea:	e8 71 d7 ff ff       	call   8048460 <strncmp@plt>
 804acef:	83 c4 10             	add    $0x10,%esp
 804acf2:	85 c0                	test   %eax,%eax
 804acf4:	75 07                	jne    804acfd <main+0x2708>
 804acf6:	b8 01 00 00 00       	mov    $0x1,%eax
 804acfb:	eb 05                	jmp    804ad02 <main+0x270d>
 804acfd:	b8 00 00 00 00       	mov    $0x0,%eax
 804ad02:	89 45 d4             	mov    %eax,-0x2c(%ebp)
 804ad05:	e9 77 4f 00 00       	jmp    804fc81 <main+0x768c>
 804ad0a:	83 ec 04             	sub    $0x4,%esp
 804ad0d:	68 ec 90 06 08       	push   $0x80690ec
 804ad12:	68 d8 4d 06 08       	push   $0x8064dd8
 804ad17:	68 73 fd 04 08       	push   $0x804fd73
 804ad1c:	e8 2f d7 ff ff       	call   8048450 <__isoc99_scanf@plt>
 804ad21:	83 c4 10             	add    $0x10,%esp
 804ad24:	83 7d d4 00          	cmpl   $0x0,-0x2c(%ebp)
 804ad28:	74 3e                	je     804ad68 <main+0x2773>
 804ad2a:	83 ec 04             	sub    $0x4,%esp
 804ad2d:	6a 04                	push   $0x4
 804ad2f:	8d 45 e0             	lea    -0x20(%ebp),%eax
 804ad32:	50                   	push   %eax
 804ad33:	68 d8 4d 06 08       	push   $0x8064dd8
 804ad38:	e8 23 d7 ff ff       	call   8048460 <strncmp@plt>
 804ad3d:	83 c4 10             	add    $0x10,%esp
 804ad40:	85 c0                	test   %eax,%eax
 804ad42:	75 24                	jne    804ad68 <main+0x2773>
 804ad44:	83 ec 04             	sub    $0x4,%esp
 804ad47:	6a 04                	push   $0x4
 804ad49:	8d 45 e0             	lea    -0x20(%ebp),%eax
 804ad4c:	83 c0 04             	add    $0x4,%eax
 804ad4f:	50                   	push   %eax
 804ad50:	68 ec 90 06 08       	push   $0x80690ec
 804ad55:	e8 06 d7 ff ff       	call   8048460 <strncmp@plt>
 804ad5a:	83 c4 10             	add    $0x10,%esp
 804ad5d:	85 c0                	test   %eax,%eax
 804ad5f:	75 07                	jne    804ad68 <main+0x2773>
 804ad61:	b8 01 00 00 00       	mov    $0x1,%eax
 804ad66:	eb 05                	jmp    804ad6d <main+0x2778>
 804ad68:	b8 00 00 00 00       	mov    $0x0,%eax
 804ad6d:	89 45 d4             	mov    %eax,-0x2c(%ebp)
 804ad70:	e9 0c 4f 00 00       	jmp    804fc81 <main+0x768c>
 804ad75:	81 7d dc ef be ad de 	cmpl   $0xdeadbeef,-0x24(%ebp)
 804ad7c:	0f 84 df 00 00 00    	je     804ae61 <main+0x286c>
 804ad82:	81 7d dc ef be ad de 	cmpl   $0xdeadbeef,-0x24(%ebp)
 804ad89:	75 6b                	jne    804adf6 <main+0x2801>
 804ad8b:	83 ec 04             	sub    $0x4,%esp
 804ad8e:	68 ec 90 06 08       	push   $0x80690ec
 804ad93:	68 d8 4d 06 08       	push   $0x8064dd8
 804ad98:	68 73 fd 04 08       	push   $0x804fd73
 804ad9d:	e8 ae d6 ff ff       	call   8048450 <__isoc99_scanf@plt>
 804ada2:	83 c4 10             	add    $0x10,%esp
 804ada5:	83 7d d4 00          	cmpl   $0x0,-0x2c(%ebp)
 804ada9:	74 3e                	je     804ade9 <main+0x27f4>
 804adab:	83 ec 04             	sub    $0x4,%esp
 804adae:	6a 04                	push   $0x4
 804adb0:	8d 45 e0             	lea    -0x20(%ebp),%eax
 804adb3:	50                   	push   %eax
 804adb4:	68 d8 4d 06 08       	push   $0x8064dd8
 804adb9:	e8 a2 d6 ff ff       	call   8048460 <strncmp@plt>
 804adbe:	83 c4 10             	add    $0x10,%esp
 804adc1:	85 c0                	test   %eax,%eax
 804adc3:	75 24                	jne    804ade9 <main+0x27f4>
 804adc5:	83 ec 04             	sub    $0x4,%esp
 804adc8:	6a 04                	push   $0x4
 804adca:	8d 45 e0             	lea    -0x20(%ebp),%eax
 804adcd:	83 c0 04             	add    $0x4,%eax
 804add0:	50                   	push   %eax
 804add1:	68 ec 90 06 08       	push   $0x80690ec
 804add6:	e8 85 d6 ff ff       	call   8048460 <strncmp@plt>
 804addb:	83 c4 10             	add    $0x10,%esp
 804adde:	85 c0                	test   %eax,%eax
 804ade0:	75 07                	jne    804ade9 <main+0x27f4>
 804ade2:	b8 01 00 00 00       	mov    $0x1,%eax
 804ade7:	eb 05                	jmp    804adee <main+0x27f9>
 804ade9:	b8 00 00 00 00       	mov    $0x0,%eax
 804adee:	89 45 d4             	mov    %eax,-0x2c(%ebp)
 804adf1:	e9 8b 4e 00 00       	jmp    804fc81 <main+0x768c>
 804adf6:	83 ec 04             	sub    $0x4,%esp
 804adf9:	68 ec 90 06 08       	push   $0x80690ec
 804adfe:	68 d8 4d 06 08       	push   $0x8064dd8
 804ae03:	68 73 fd 04 08       	push   $0x804fd73
 804ae08:	e8 43 d6 ff ff       	call   8048450 <__isoc99_scanf@plt>
 804ae0d:	83 c4 10             	add    $0x10,%esp
 804ae10:	83 7d d4 00          	cmpl   $0x0,-0x2c(%ebp)
 804ae14:	74 3e                	je     804ae54 <main+0x285f>
 804ae16:	83 ec 04             	sub    $0x4,%esp
 804ae19:	6a 04                	push   $0x4
 804ae1b:	8d 45 e0             	lea    -0x20(%ebp),%eax
 804ae1e:	50                   	push   %eax
 804ae1f:	68 d8 4d 06 08       	push   $0x8064dd8
 804ae24:	e8 37 d6 ff ff       	call   8048460 <strncmp@plt>
 804ae29:	83 c4 10             	add    $0x10,%esp
 804ae2c:	85 c0                	test   %eax,%eax
 804ae2e:	75 24                	jne    804ae54 <main+0x285f>
 804ae30:	83 ec 04             	sub    $0x4,%esp
 804ae33:	6a 04                	push   $0x4
 804ae35:	8d 45 e0             	lea    -0x20(%ebp),%eax
 804ae38:	83 c0 04             	add    $0x4,%eax
 804ae3b:	50                   	push   %eax
 804ae3c:	68 ec 90 06 08       	push   $0x80690ec
 804ae41:	e8 1a d6 ff ff       	call   8048460 <strncmp@plt>
 804ae46:	83 c4 10             	add    $0x10,%esp
 804ae49:	85 c0                	test   %eax,%eax
 804ae4b:	75 07                	jne    804ae54 <main+0x285f>
 804ae4d:	b8 01 00 00 00       	mov    $0x1,%eax
 804ae52:	eb 05                	jmp    804ae59 <main+0x2864>
 804ae54:	b8 00 00 00 00       	mov    $0x0,%eax
 804ae59:	89 45 d4             	mov    %eax,-0x2c(%ebp)
 804ae5c:	e9 20 4e 00 00       	jmp    804fc81 <main+0x768c>
 804ae61:	81 7d dc ef be ad de 	cmpl   $0xdeadbeef,-0x24(%ebp)
 804ae68:	75 6b                	jne    804aed5 <main+0x28e0>
 804ae6a:	83 ec 04             	sub    $0x4,%esp
 804ae6d:	68 ec 90 06 08       	push   $0x80690ec
 804ae72:	68 d8 4d 06 08       	push   $0x8064dd8
 804ae77:	68 73 fd 04 08       	push   $0x804fd73
 804ae7c:	e8 cf d5 ff ff       	call   8048450 <__isoc99_scanf@plt>
 804ae81:	83 c4 10             	add    $0x10,%esp
 804ae84:	83 7d d4 00          	cmpl   $0x0,-0x2c(%ebp)
 804ae88:	74 3e                	je     804aec8 <main+0x28d3>
 804ae8a:	83 ec 04             	sub    $0x4,%esp
 804ae8d:	6a 04                	push   $0x4
 804ae8f:	8d 45 e0             	lea    -0x20(%ebp),%eax
 804ae92:	50                   	push   %eax
 804ae93:	68 d8 4d 06 08       	push   $0x8064dd8
 804ae98:	e8 c3 d5 ff ff       	call   8048460 <strncmp@plt>
 804ae9d:	83 c4 10             	add    $0x10,%esp
 804aea0:	85 c0                	test   %eax,%eax
 804aea2:	75 24                	jne    804aec8 <main+0x28d3>
 804aea4:	83 ec 04             	sub    $0x4,%esp
 804aea7:	6a 04                	push   $0x4
 804aea9:	8d 45 e0             	lea    -0x20(%ebp),%eax
 804aeac:	83 c0 04             	add    $0x4,%eax
 804aeaf:	50                   	push   %eax
 804aeb0:	68 ec 90 06 08       	push   $0x80690ec
 804aeb5:	e8 a6 d5 ff ff       	call   8048460 <strncmp@plt>
 804aeba:	83 c4 10             	add    $0x10,%esp
 804aebd:	85 c0                	test   %eax,%eax
 804aebf:	75 07                	jne    804aec8 <main+0x28d3>
 804aec1:	b8 01 00 00 00       	mov    $0x1,%eax
 804aec6:	eb 05                	jmp    804aecd <main+0x28d8>
 804aec8:	b8 00 00 00 00       	mov    $0x0,%eax
 804aecd:	89 45 d4             	mov    %eax,-0x2c(%ebp)
 804aed0:	e9 ac 4d 00 00       	jmp    804fc81 <main+0x768c>
 804aed5:	83 ec 04             	sub    $0x4,%esp
 804aed8:	68 ec 90 06 08       	push   $0x80690ec
 804aedd:	68 d8 4d 06 08       	push   $0x8064dd8
 804aee2:	68 73 fd 04 08       	push   $0x804fd73
 804aee7:	e8 64 d5 ff ff       	call   8048450 <__isoc99_scanf@plt>
 804aeec:	83 c4 10             	add    $0x10,%esp
 804aeef:	83 7d d4 00          	cmpl   $0x0,-0x2c(%ebp)
 804aef3:	74 3e                	je     804af33 <main+0x293e>
 804aef5:	83 ec 04             	sub    $0x4,%esp
 804aef8:	6a 04                	push   $0x4
 804aefa:	8d 45 e0             	lea    -0x20(%ebp),%eax
 804aefd:	50                   	push   %eax
 804aefe:	68 d8 4d 06 08       	push   $0x8064dd8
 804af03:	e8 58 d5 ff ff       	call   8048460 <strncmp@plt>
 804af08:	83 c4 10             	add    $0x10,%esp
 804af0b:	85 c0                	test   %eax,%eax
 804af0d:	75 24                	jne    804af33 <main+0x293e>
 804af0f:	83 ec 04             	sub    $0x4,%esp
 804af12:	6a 04                	push   $0x4
 804af14:	8d 45 e0             	lea    -0x20(%ebp),%eax
 804af17:	83 c0 04             	add    $0x4,%eax
 804af1a:	50                   	push   %eax
 804af1b:	68 ec 90 06 08       	push   $0x80690ec
 804af20:	e8 3b d5 ff ff       	call   8048460 <strncmp@plt>
 804af25:	83 c4 10             	add    $0x10,%esp
 804af28:	85 c0                	test   %eax,%eax
 804af2a:	75 07                	jne    804af33 <main+0x293e>
 804af2c:	b8 01 00 00 00       	mov    $0x1,%eax
 804af31:	eb 05                	jmp    804af38 <main+0x2943>
 804af33:	b8 00 00 00 00       	mov    $0x0,%eax
 804af38:	89 45 d4             	mov    %eax,-0x2c(%ebp)
 804af3b:	e9 41 4d 00 00       	jmp    804fc81 <main+0x768c>
 804af40:	81 7d dc ef be ad de 	cmpl   $0xdeadbeef,-0x24(%ebp)
 804af47:	0f 85 cb 01 00 00    	jne    804b118 <main+0x2b23>
 804af4d:	81 7d dc ef be ad de 	cmpl   $0xdeadbeef,-0x24(%ebp)
 804af54:	0f 84 df 00 00 00    	je     804b039 <main+0x2a44>
 804af5a:	81 7d dc ef be ad de 	cmpl   $0xdeadbeef,-0x24(%ebp)
 804af61:	74 6b                	je     804afce <main+0x29d9>
 804af63:	83 ec 04             	sub    $0x4,%esp
 804af66:	68 ec 90 06 08       	push   $0x80690ec
 804af6b:	68 d8 4d 06 08       	push   $0x8064dd8
 804af70:	68 73 fd 04 08       	push   $0x804fd73
 804af75:	e8 d6 d4 ff ff       	call   8048450 <__isoc99_scanf@plt>
 804af7a:	83 c4 10             	add    $0x10,%esp
 804af7d:	83 7d d4 00          	cmpl   $0x0,-0x2c(%ebp)
 804af81:	74 3e                	je     804afc1 <main+0x29cc>
 804af83:	83 ec 04             	sub    $0x4,%esp
 804af86:	6a 04                	push   $0x4
 804af88:	8d 45 e0             	lea    -0x20(%ebp),%eax
 804af8b:	50                   	push   %eax
 804af8c:	68 d8 4d 06 08       	push   $0x8064dd8
 804af91:	e8 ca d4 ff ff       	call   8048460 <strncmp@plt>
 804af96:	83 c4 10             	add    $0x10,%esp
 804af99:	85 c0                	test   %eax,%eax
 804af9b:	75 24                	jne    804afc1 <main+0x29cc>
 804af9d:	83 ec 04             	sub    $0x4,%esp
 804afa0:	6a 04                	push   $0x4
 804afa2:	8d 45 e0             	lea    -0x20(%ebp),%eax
 804afa5:	83 c0 04             	add    $0x4,%eax
 804afa8:	50                   	push   %eax
 804afa9:	68 ec 90 06 08       	push   $0x80690ec
 804afae:	e8 ad d4 ff ff       	call   8048460 <strncmp@plt>
 804afb3:	83 c4 10             	add    $0x10,%esp
 804afb6:	85 c0                	test   %eax,%eax
 804afb8:	75 07                	jne    804afc1 <main+0x29cc>
 804afba:	b8 01 00 00 00       	mov    $0x1,%eax
 804afbf:	eb 05                	jmp    804afc6 <main+0x29d1>
 804afc1:	b8 00 00 00 00       	mov    $0x0,%eax
 804afc6:	89 45 d4             	mov    %eax,-0x2c(%ebp)
 804afc9:	e9 b3 4c 00 00       	jmp    804fc81 <main+0x768c>
 804afce:	83 ec 04             	sub    $0x4,%esp
 804afd1:	68 ec 90 06 08       	push   $0x80690ec
 804afd6:	68 d8 4d 06 08       	push   $0x8064dd8
 804afdb:	68 73 fd 04 08       	push   $0x804fd73
 804afe0:	e8 6b d4 ff ff       	call   8048450 <__isoc99_scanf@plt>
 804afe5:	83 c4 10             	add    $0x10,%esp
 804afe8:	83 7d d4 00          	cmpl   $0x0,-0x2c(%ebp)
 804afec:	74 3e                	je     804b02c <main+0x2a37>
 804afee:	83 ec 04             	sub    $0x4,%esp
 804aff1:	6a 04                	push   $0x4
 804aff3:	8d 45 e0             	lea    -0x20(%ebp),%eax
 804aff6:	50                   	push   %eax
 804aff7:	68 d8 4d 06 08       	push   $0x8064dd8
 804affc:	e8 5f d4 ff ff       	call   8048460 <strncmp@plt>
 804b001:	83 c4 10             	add    $0x10,%esp
 804b004:	85 c0                	test   %eax,%eax
 804b006:	75 24                	jne    804b02c <main+0x2a37>
 804b008:	83 ec 04             	sub    $0x4,%esp
 804b00b:	6a 04                	push   $0x4
 804b00d:	8d 45 e0             	lea    -0x20(%ebp),%eax
 804b010:	83 c0 04             	add    $0x4,%eax
 804b013:	50                   	push   %eax
 804b014:	68 ec 90 06 08       	push   $0x80690ec
 804b019:	e8 42 d4 ff ff       	call   8048460 <strncmp@plt>
 804b01e:	83 c4 10             	add    $0x10,%esp
 804b021:	85 c0                	test   %eax,%eax
 804b023:	75 07                	jne    804b02c <main+0x2a37>
 804b025:	b8 01 00 00 00       	mov    $0x1,%eax
 804b02a:	eb 05                	jmp    804b031 <main+0x2a3c>
 804b02c:	b8 00 00 00 00       	mov    $0x0,%eax
 804b031:	89 45 d4             	mov    %eax,-0x2c(%ebp)
 804b034:	e9 48 4c 00 00       	jmp    804fc81 <main+0x768c>
 804b039:	81 7d dc ef be ad de 	cmpl   $0xdeadbeef,-0x24(%ebp)
 804b040:	74 6b                	je     804b0ad <main+0x2ab8>
 804b042:	83 ec 04             	sub    $0x4,%esp
 804b045:	68 ec 90 06 08       	push   $0x80690ec
 804b04a:	68 d8 4d 06 08       	push   $0x8064dd8
 804b04f:	68 73 fd 04 08       	push   $0x804fd73
 804b054:	e8 f7 d3 ff ff       	call   8048450 <__isoc99_scanf@plt>
 804b059:	83 c4 10             	add    $0x10,%esp
 804b05c:	83 7d d4 00          	cmpl   $0x0,-0x2c(%ebp)
 804b060:	74 3e                	je     804b0a0 <main+0x2aab>
 804b062:	83 ec 04             	sub    $0x4,%esp
 804b065:	6a 04                	push   $0x4
 804b067:	8d 45 e0             	lea    -0x20(%ebp),%eax
 804b06a:	50                   	push   %eax
 804b06b:	68 d8 4d 06 08       	push   $0x8064dd8
 804b070:	e8 eb d3 ff ff       	call   8048460 <strncmp@plt>
 804b075:	83 c4 10             	add    $0x10,%esp
 804b078:	85 c0                	test   %eax,%eax
 804b07a:	75 24                	jne    804b0a0 <main+0x2aab>
 804b07c:	83 ec 04             	sub    $0x4,%esp
 804b07f:	6a 04                	push   $0x4
 804b081:	8d 45 e0             	lea    -0x20(%ebp),%eax
 804b084:	83 c0 04             	add    $0x4,%eax
 804b087:	50                   	push   %eax
 804b088:	68 ec 90 06 08       	push   $0x80690ec
 804b08d:	e8 ce d3 ff ff       	call   8048460 <strncmp@plt>
 804b092:	83 c4 10             	add    $0x10,%esp
 804b095:	85 c0                	test   %eax,%eax
 804b097:	75 07                	jne    804b0a0 <main+0x2aab>
 804b099:	b8 01 00 00 00       	mov    $0x1,%eax
 804b09e:	eb 05                	jmp    804b0a5 <main+0x2ab0>
 804b0a0:	b8 00 00 00 00       	mov    $0x0,%eax
 804b0a5:	89 45 d4             	mov    %eax,-0x2c(%ebp)
 804b0a8:	e9 d4 4b 00 00       	jmp    804fc81 <main+0x768c>
 804b0ad:	83 ec 04             	sub    $0x4,%esp
 804b0b0:	68 ec 90 06 08       	push   $0x80690ec
 804b0b5:	68 d8 4d 06 08       	push   $0x8064dd8
 804b0ba:	68 73 fd 04 08       	push   $0x804fd73
 804b0bf:	e8 8c d3 ff ff       	call   8048450 <__isoc99_scanf@plt>
 804b0c4:	83 c4 10             	add    $0x10,%esp
 804b0c7:	83 7d d4 00          	cmpl   $0x0,-0x2c(%ebp)
 804b0cb:	74 3e                	je     804b10b <main+0x2b16>
 804b0cd:	83 ec 04             	sub    $0x4,%esp
 804b0d0:	6a 04                	push   $0x4
 804b0d2:	8d 45 e0             	lea    -0x20(%ebp),%eax
 804b0d5:	50                   	push   %eax
 804b0d6:	68 d8 4d 06 08       	push   $0x8064dd8
 804b0db:	e8 80 d3 ff ff       	call   8048460 <strncmp@plt>
 804b0e0:	83 c4 10             	add    $0x10,%esp
 804b0e3:	85 c0                	test   %eax,%eax
 804b0e5:	75 24                	jne    804b10b <main+0x2b16>
 804b0e7:	83 ec 04             	sub    $0x4,%esp
 804b0ea:	6a 04                	push   $0x4
 804b0ec:	8d 45 e0             	lea    -0x20(%ebp),%eax
 804b0ef:	83 c0 04             	add    $0x4,%eax
 804b0f2:	50                   	push   %eax
 804b0f3:	68 ec 90 06 08       	push   $0x80690ec
 804b0f8:	e8 63 d3 ff ff       	call   8048460 <strncmp@plt>
 804b0fd:	83 c4 10             	add    $0x10,%esp
 804b100:	85 c0                	test   %eax,%eax
 804b102:	75 07                	jne    804b10b <main+0x2b16>
 804b104:	b8 01 00 00 00       	mov    $0x1,%eax
 804b109:	eb 05                	jmp    804b110 <main+0x2b1b>
 804b10b:	b8 00 00 00 00       	mov    $0x0,%eax
 804b110:	89 45 d4             	mov    %eax,-0x2c(%ebp)
 804b113:	e9 69 4b 00 00       	jmp    804fc81 <main+0x768c>
 804b118:	81 7d dc ef be ad de 	cmpl   $0xdeadbeef,-0x24(%ebp)
 804b11f:	0f 85 df 00 00 00    	jne    804b204 <main+0x2c0f>
 804b125:	81 7d dc ef be ad de 	cmpl   $0xdeadbeef,-0x24(%ebp)
 804b12c:	74 6b                	je     804b199 <main+0x2ba4>
 804b12e:	83 ec 04             	sub    $0x4,%esp
 804b131:	68 ec 90 06 08       	push   $0x80690ec
 804b136:	68 d8 4d 06 08       	push   $0x8064dd8
 804b13b:	68 73 fd 04 08       	push   $0x804fd73
 804b140:	e8 0b d3 ff ff       	call   8048450 <__isoc99_scanf@plt>
 804b145:	83 c4 10             	add    $0x10,%esp
 804b148:	83 7d d4 00          	cmpl   $0x0,-0x2c(%ebp)
 804b14c:	74 3e                	je     804b18c <main+0x2b97>
 804b14e:	83 ec 04             	sub    $0x4,%esp
 804b151:	6a 04                	push   $0x4
 804b153:	8d 45 e0             	lea    -0x20(%ebp),%eax
 804b156:	50                   	push   %eax
 804b157:	68 d8 4d 06 08       	push   $0x8064dd8
 804b15c:	e8 ff d2 ff ff       	call   8048460 <strncmp@plt>
 804b161:	83 c4 10             	add    $0x10,%esp
 804b164:	85 c0                	test   %eax,%eax
 804b166:	75 24                	jne    804b18c <main+0x2b97>
 804b168:	83 ec 04             	sub    $0x4,%esp
 804b16b:	6a 04                	push   $0x4
 804b16d:	8d 45 e0             	lea    -0x20(%ebp),%eax
 804b170:	83 c0 04             	add    $0x4,%eax
 804b173:	50                   	push   %eax
 804b174:	68 ec 90 06 08       	push   $0x80690ec
 804b179:	e8 e2 d2 ff ff       	call   8048460 <strncmp@plt>
 804b17e:	83 c4 10             	add    $0x10,%esp
 804b181:	85 c0                	test   %eax,%eax
 804b183:	75 07                	jne    804b18c <main+0x2b97>
 804b185:	b8 01 00 00 00       	mov    $0x1,%eax
 804b18a:	eb 05                	jmp    804b191 <main+0x2b9c>
 804b18c:	b8 00 00 00 00       	mov    $0x0,%eax
 804b191:	89 45 d4             	mov    %eax,-0x2c(%ebp)
 804b194:	e9 e8 4a 00 00       	jmp    804fc81 <main+0x768c>
 804b199:	83 ec 04             	sub    $0x4,%esp
 804b19c:	68 ec 90 06 08       	push   $0x80690ec
 804b1a1:	68 d8 4d 06 08       	push   $0x8064dd8
 804b1a6:	68 73 fd 04 08       	push   $0x804fd73
 804b1ab:	e8 a0 d2 ff ff       	call   8048450 <__isoc99_scanf@plt>
 804b1b0:	83 c4 10             	add    $0x10,%esp
 804b1b3:	83 7d d4 00          	cmpl   $0x0,-0x2c(%ebp)
 804b1b7:	74 3e                	je     804b1f7 <main+0x2c02>
 804b1b9:	83 ec 04             	sub    $0x4,%esp
 804b1bc:	6a 04                	push   $0x4
 804b1be:	8d 45 e0             	lea    -0x20(%ebp),%eax
 804b1c1:	50                   	push   %eax
 804b1c2:	68 d8 4d 06 08       	push   $0x8064dd8
 804b1c7:	e8 94 d2 ff ff       	call   8048460 <strncmp@plt>
 804b1cc:	83 c4 10             	add    $0x10,%esp
 804b1cf:	85 c0                	test   %eax,%eax
 804b1d1:	75 24                	jne    804b1f7 <main+0x2c02>
 804b1d3:	83 ec 04             	sub    $0x4,%esp
 804b1d6:	6a 04                	push   $0x4
 804b1d8:	8d 45 e0             	lea    -0x20(%ebp),%eax
 804b1db:	83 c0 04             	add    $0x4,%eax
 804b1de:	50                   	push   %eax
 804b1df:	68 ec 90 06 08       	push   $0x80690ec
 804b1e4:	e8 77 d2 ff ff       	call   8048460 <strncmp@plt>
 804b1e9:	83 c4 10             	add    $0x10,%esp
 804b1ec:	85 c0                	test   %eax,%eax
 804b1ee:	75 07                	jne    804b1f7 <main+0x2c02>
 804b1f0:	b8 01 00 00 00       	mov    $0x1,%eax
 804b1f5:	eb 05                	jmp    804b1fc <main+0x2c07>
 804b1f7:	b8 00 00 00 00       	mov    $0x0,%eax
 804b1fc:	89 45 d4             	mov    %eax,-0x2c(%ebp)
 804b1ff:	e9 7d 4a 00 00       	jmp    804fc81 <main+0x768c>
 804b204:	81 7d dc ef be ad de 	cmpl   $0xdeadbeef,-0x24(%ebp)
 804b20b:	75 6b                	jne    804b278 <main+0x2c83>
 804b20d:	83 ec 04             	sub    $0x4,%esp
 804b210:	68 ec 90 06 08       	push   $0x80690ec
 804b215:	68 d8 4d 06 08       	push   $0x8064dd8
 804b21a:	68 73 fd 04 08       	push   $0x804fd73
 804b21f:	e8 2c d2 ff ff       	call   8048450 <__isoc99_scanf@plt>
 804b224:	83 c4 10             	add    $0x10,%esp
 804b227:	83 7d d4 00          	cmpl   $0x0,-0x2c(%ebp)
 804b22b:	74 3e                	je     804b26b <main+0x2c76>
 804b22d:	83 ec 04             	sub    $0x4,%esp
 804b230:	6a 04                	push   $0x4
 804b232:	8d 45 e0             	lea    -0x20(%ebp),%eax
 804b235:	50                   	push   %eax
 804b236:	68 d8 4d 06 08       	push   $0x8064dd8
 804b23b:	e8 20 d2 ff ff       	call   8048460 <strncmp@plt>
 804b240:	83 c4 10             	add    $0x10,%esp
 804b243:	85 c0                	test   %eax,%eax
 804b245:	75 24                	jne    804b26b <main+0x2c76>
 804b247:	83 ec 04             	sub    $0x4,%esp
 804b24a:	6a 04                	push   $0x4
 804b24c:	8d 45 e0             	lea    -0x20(%ebp),%eax
 804b24f:	83 c0 04             	add    $0x4,%eax
 804b252:	50                   	push   %eax
 804b253:	68 ec 90 06 08       	push   $0x80690ec
 804b258:	e8 03 d2 ff ff       	call   8048460 <strncmp@plt>
 804b25d:	83 c4 10             	add    $0x10,%esp
 804b260:	85 c0                	test   %eax,%eax
 804b262:	75 07                	jne    804b26b <main+0x2c76>
 804b264:	b8 01 00 00 00       	mov    $0x1,%eax
 804b269:	eb 05                	jmp    804b270 <main+0x2c7b>
 804b26b:	b8 00 00 00 00       	mov    $0x0,%eax
 804b270:	89 45 d4             	mov    %eax,-0x2c(%ebp)
 804b273:	e9 09 4a 00 00       	jmp    804fc81 <main+0x768c>
 804b278:	83 ec 04             	sub    $0x4,%esp
 804b27b:	68 ec 90 06 08       	push   $0x80690ec
 804b280:	68 d8 4d 06 08       	push   $0x8064dd8
 804b285:	68 73 fd 04 08       	push   $0x804fd73
 804b28a:	e8 c1 d1 ff ff       	call   8048450 <__isoc99_scanf@plt>
 804b28f:	83 c4 10             	add    $0x10,%esp
 804b292:	83 7d d4 00          	cmpl   $0x0,-0x2c(%ebp)
 804b296:	74 3e                	je     804b2d6 <main+0x2ce1>
 804b298:	83 ec 04             	sub    $0x4,%esp
 804b29b:	6a 04                	push   $0x4
 804b29d:	8d 45 e0             	lea    -0x20(%ebp),%eax
 804b2a0:	50                   	push   %eax
 804b2a1:	68 d8 4d 06 08       	push   $0x8064dd8
 804b2a6:	e8 b5 d1 ff ff       	call   8048460 <strncmp@plt>
 804b2ab:	83 c4 10             	add    $0x10,%esp
 804b2ae:	85 c0                	test   %eax,%eax
 804b2b0:	75 24                	jne    804b2d6 <main+0x2ce1>
 804b2b2:	83 ec 04             	sub    $0x4,%esp
 804b2b5:	6a 04                	push   $0x4
 804b2b7:	8d 45 e0             	lea    -0x20(%ebp),%eax
 804b2ba:	83 c0 04             	add    $0x4,%eax
 804b2bd:	50                   	push   %eax
 804b2be:	68 ec 90 06 08       	push   $0x80690ec
 804b2c3:	e8 98 d1 ff ff       	call   8048460 <strncmp@plt>
 804b2c8:	83 c4 10             	add    $0x10,%esp
 804b2cb:	85 c0                	test   %eax,%eax
 804b2cd:	75 07                	jne    804b2d6 <main+0x2ce1>
 804b2cf:	b8 01 00 00 00       	mov    $0x1,%eax
 804b2d4:	eb 05                	jmp    804b2db <main+0x2ce6>
 804b2d6:	b8 00 00 00 00       	mov    $0x0,%eax
 804b2db:	89 45 d4             	mov    %eax,-0x2c(%ebp)
 804b2de:	e9 9e 49 00 00       	jmp    804fc81 <main+0x768c>
 804b2e3:	81 7d dc ef be ad de 	cmpl   $0xdeadbeef,-0x24(%ebp)
 804b2ea:	0f 85 53 07 00 00    	jne    804ba43 <main+0x344e>
 804b2f0:	81 7d dc ef be ad de 	cmpl   $0xdeadbeef,-0x24(%ebp)
 804b2f7:	0f 84 a3 03 00 00    	je     804b6a0 <main+0x30ab>
 804b2fd:	81 7d dc ef be ad de 	cmpl   $0xdeadbeef,-0x24(%ebp)
 804b304:	0f 85 cb 01 00 00    	jne    804b4d5 <main+0x2ee0>
 804b30a:	81 7d dc ef be ad de 	cmpl   $0xdeadbeef,-0x24(%ebp)
 804b311:	0f 85 df 00 00 00    	jne    804b3f6 <main+0x2e01>
 804b317:	81 7d dc ef be ad de 	cmpl   $0xdeadbeef,-0x24(%ebp)
 804b31e:	75 6b                	jne    804b38b <main+0x2d96>
 804b320:	83 ec 04             	sub    $0x4,%esp
 804b323:	68 ec 90 06 08       	push   $0x80690ec
 804b328:	68 d8 4d 06 08       	push   $0x8064dd8
 804b32d:	68 73 fd 04 08       	push   $0x804fd73
 804b332:	e8 19 d1 ff ff       	call   8048450 <__isoc99_scanf@plt>
 804b337:	83 c4 10             	add    $0x10,%esp
 804b33a:	83 7d d4 00          	cmpl   $0x0,-0x2c(%ebp)
 804b33e:	74 3e                	je     804b37e <main+0x2d89>
 804b340:	83 ec 04             	sub    $0x4,%esp
 804b343:	6a 04                	push   $0x4
 804b345:	8d 45 e0             	lea    -0x20(%ebp),%eax
 804b348:	50                   	push   %eax
 804b349:	68 d8 4d 06 08       	push   $0x8064dd8
 804b34e:	e8 0d d1 ff ff       	call   8048460 <strncmp@plt>
 804b353:	83 c4 10             	add    $0x10,%esp
 804b356:	85 c0                	test   %eax,%eax
 804b358:	75 24                	jne    804b37e <main+0x2d89>
 804b35a:	83 ec 04             	sub    $0x4,%esp
 804b35d:	6a 04                	push   $0x4
 804b35f:	8d 45 e0             	lea    -0x20(%ebp),%eax
 804b362:	83 c0 04             	add    $0x4,%eax
 804b365:	50                   	push   %eax
 804b366:	68 ec 90 06 08       	push   $0x80690ec
 804b36b:	e8 f0 d0 ff ff       	call   8048460 <strncmp@plt>
 804b370:	83 c4 10             	add    $0x10,%esp
 804b373:	85 c0                	test   %eax,%eax
 804b375:	75 07                	jne    804b37e <main+0x2d89>
 804b377:	b8 01 00 00 00       	mov    $0x1,%eax
 804b37c:	eb 05                	jmp    804b383 <main+0x2d8e>
 804b37e:	b8 00 00 00 00       	mov    $0x0,%eax
 804b383:	89 45 d4             	mov    %eax,-0x2c(%ebp)
 804b386:	e9 f6 48 00 00       	jmp    804fc81 <main+0x768c>
 804b38b:	83 ec 04             	sub    $0x4,%esp
 804b38e:	68 ec 90 06 08       	push   $0x80690ec
 804b393:	68 d8 4d 06 08       	push   $0x8064dd8
 804b398:	68 73 fd 04 08       	push   $0x804fd73
 804b39d:	e8 ae d0 ff ff       	call   8048450 <__isoc99_scanf@plt>
 804b3a2:	83 c4 10             	add    $0x10,%esp
 804b3a5:	83 7d d4 00          	cmpl   $0x0,-0x2c(%ebp)
 804b3a9:	74 3e                	je     804b3e9 <main+0x2df4>
 804b3ab:	83 ec 04             	sub    $0x4,%esp
 804b3ae:	6a 04                	push   $0x4
 804b3b0:	8d 45 e0             	lea    -0x20(%ebp),%eax
 804b3b3:	50                   	push   %eax
 804b3b4:	68 d8 4d 06 08       	push   $0x8064dd8
 804b3b9:	e8 a2 d0 ff ff       	call   8048460 <strncmp@plt>
 804b3be:	83 c4 10             	add    $0x10,%esp
 804b3c1:	85 c0                	test   %eax,%eax
 804b3c3:	75 24                	jne    804b3e9 <main+0x2df4>
 804b3c5:	83 ec 04             	sub    $0x4,%esp
 804b3c8:	6a 04                	push   $0x4
 804b3ca:	8d 45 e0             	lea    -0x20(%ebp),%eax
 804b3cd:	83 c0 04             	add    $0x4,%eax
 804b3d0:	50                   	push   %eax
 804b3d1:	68 ec 90 06 08       	push   $0x80690ec
 804b3d6:	e8 85 d0 ff ff       	call   8048460 <strncmp@plt>
 804b3db:	83 c4 10             	add    $0x10,%esp
 804b3de:	85 c0                	test   %eax,%eax
 804b3e0:	75 07                	jne    804b3e9 <main+0x2df4>
 804b3e2:	b8 01 00 00 00       	mov    $0x1,%eax
 804b3e7:	eb 05                	jmp    804b3ee <main+0x2df9>
 804b3e9:	b8 00 00 00 00       	mov    $0x0,%eax
 804b3ee:	89 45 d4             	mov    %eax,-0x2c(%ebp)
 804b3f1:	e9 8b 48 00 00       	jmp    804fc81 <main+0x768c>
 804b3f6:	81 7d dc ef be ad de 	cmpl   $0xdeadbeef,-0x24(%ebp)
 804b3fd:	74 6b                	je     804b46a <main+0x2e75>
 804b3ff:	83 ec 04             	sub    $0x4,%esp
 804b402:	68 ec 90 06 08       	push   $0x80690ec
 804b407:	68 d8 4d 06 08       	push   $0x8064dd8
 804b40c:	68 73 fd 04 08       	push   $0x804fd73
 804b411:	e8 3a d0 ff ff       	call   8048450 <__isoc99_scanf@plt>
 804b416:	83 c4 10             	add    $0x10,%esp
 804b419:	83 7d d4 00          	cmpl   $0x0,-0x2c(%ebp)
 804b41d:	74 3e                	je     804b45d <main+0x2e68>
 804b41f:	83 ec 04             	sub    $0x4,%esp
 804b422:	6a 04                	push   $0x4
 804b424:	8d 45 e0             	lea    -0x20(%ebp),%eax
 804b427:	50                   	push   %eax
 804b428:	68 d8 4d 06 08       	push   $0x8064dd8
 804b42d:	e8 2e d0 ff ff       	call   8048460 <strncmp@plt>
 804b432:	83 c4 10             	add    $0x10,%esp
 804b435:	85 c0                	test   %eax,%eax
 804b437:	75 24                	jne    804b45d <main+0x2e68>
 804b439:	83 ec 04             	sub    $0x4,%esp
 804b43c:	6a 04                	push   $0x4
 804b43e:	8d 45 e0             	lea    -0x20(%ebp),%eax
 804b441:	83 c0 04             	add    $0x4,%eax
 804b444:	50                   	push   %eax
 804b445:	68 ec 90 06 08       	push   $0x80690ec
 804b44a:	e8 11 d0 ff ff       	call   8048460 <strncmp@plt>
 804b44f:	83 c4 10             	add    $0x10,%esp
 804b452:	85 c0                	test   %eax,%eax
 804b454:	75 07                	jne    804b45d <main+0x2e68>
 804b456:	b8 01 00 00 00       	mov    $0x1,%eax
 804b45b:	eb 05                	jmp    804b462 <main+0x2e6d>
 804b45d:	b8 00 00 00 00       	mov    $0x0,%eax
 804b462:	89 45 d4             	mov    %eax,-0x2c(%ebp)
 804b465:	e9 17 48 00 00       	jmp    804fc81 <main+0x768c>
 804b46a:	83 ec 04             	sub    $0x4,%esp
 804b46d:	68 ec 90 06 08       	push   $0x80690ec
 804b472:	68 d8 4d 06 08       	push   $0x8064dd8
 804b477:	68 73 fd 04 08       	push   $0x804fd73
 804b47c:	e8 cf cf ff ff       	call   8048450 <__isoc99_scanf@plt>
 804b481:	83 c4 10             	add    $0x10,%esp
 804b484:	83 7d d4 00          	cmpl   $0x0,-0x2c(%ebp)
 804b488:	74 3e                	je     804b4c8 <main+0x2ed3>
 804b48a:	83 ec 04             	sub    $0x4,%esp
 804b48d:	6a 04                	push   $0x4
 804b48f:	8d 45 e0             	lea    -0x20(%ebp),%eax
 804b492:	50                   	push   %eax
 804b493:	68 d8 4d 06 08       	push   $0x8064dd8
 804b498:	e8 c3 cf ff ff       	call   8048460 <strncmp@plt>
 804b49d:	83 c4 10             	add    $0x10,%esp
 804b4a0:	85 c0                	test   %eax,%eax
 804b4a2:	75 24                	jne    804b4c8 <main+0x2ed3>
 804b4a4:	83 ec 04             	sub    $0x4,%esp
 804b4a7:	6a 04                	push   $0x4
 804b4a9:	8d 45 e0             	lea    -0x20(%ebp),%eax
 804b4ac:	83 c0 04             	add    $0x4,%eax
 804b4af:	50                   	push   %eax
 804b4b0:	68 ec 90 06 08       	push   $0x80690ec
 804b4b5:	e8 a6 cf ff ff       	call   8048460 <strncmp@plt>
 804b4ba:	83 c4 10             	add    $0x10,%esp
 804b4bd:	85 c0                	test   %eax,%eax
 804b4bf:	75 07                	jne    804b4c8 <main+0x2ed3>
 804b4c1:	b8 01 00 00 00       	mov    $0x1,%eax
 804b4c6:	eb 05                	jmp    804b4cd <main+0x2ed8>
 804b4c8:	b8 00 00 00 00       	mov    $0x0,%eax
 804b4cd:	89 45 d4             	mov    %eax,-0x2c(%ebp)
 804b4d0:	e9 ac 47 00 00       	jmp    804fc81 <main+0x768c>
 804b4d5:	81 7d dc ef be ad de 	cmpl   $0xdeadbeef,-0x24(%ebp)
 804b4dc:	0f 84 df 00 00 00    	je     804b5c1 <main+0x2fcc>
 804b4e2:	81 7d dc ef be ad de 	cmpl   $0xdeadbeef,-0x24(%ebp)
 804b4e9:	75 6b                	jne    804b556 <main+0x2f61>
 804b4eb:	83 ec 04             	sub    $0x4,%esp
 804b4ee:	68 ec 90 06 08       	push   $0x80690ec
 804b4f3:	68 d8 4d 06 08       	push   $0x8064dd8
 804b4f8:	68 73 fd 04 08       	push   $0x804fd73
 804b4fd:	e8 4e cf ff ff       	call   8048450 <__isoc99_scanf@plt>
 804b502:	83 c4 10             	add    $0x10,%esp
 804b505:	83 7d d4 00          	cmpl   $0x0,-0x2c(%ebp)
 804b509:	74 3e                	je     804b549 <main+0x2f54>
 804b50b:	83 ec 04             	sub    $0x4,%esp
 804b50e:	6a 04                	push   $0x4
 804b510:	8d 45 e0             	lea    -0x20(%ebp),%eax
 804b513:	50                   	push   %eax
 804b514:	68 d8 4d 06 08       	push   $0x8064dd8
 804b519:	e8 42 cf ff ff       	call   8048460 <strncmp@plt>
 804b51e:	83 c4 10             	add    $0x10,%esp
 804b521:	85 c0                	test   %eax,%eax
 804b523:	75 24                	jne    804b549 <main+0x2f54>
 804b525:	83 ec 04             	sub    $0x4,%esp
 804b528:	6a 04                	push   $0x4
 804b52a:	8d 45 e0             	lea    -0x20(%ebp),%eax
 804b52d:	83 c0 04             	add    $0x4,%eax
 804b530:	50                   	push   %eax
 804b531:	68 ec 90 06 08       	push   $0x80690ec
 804b536:	e8 25 cf ff ff       	call   8048460 <strncmp@plt>
 804b53b:	83 c4 10             	add    $0x10,%esp
 804b53e:	85 c0                	test   %eax,%eax
 804b540:	75 07                	jne    804b549 <main+0x2f54>
 804b542:	b8 01 00 00 00       	mov    $0x1,%eax
 804b547:	eb 05                	jmp    804b54e <main+0x2f59>
 804b549:	b8 00 00 00 00       	mov    $0x0,%eax
 804b54e:	89 45 d4             	mov    %eax,-0x2c(%ebp)
 804b551:	e9 2b 47 00 00       	jmp    804fc81 <main+0x768c>
 804b556:	83 ec 04             	sub    $0x4,%esp
 804b559:	68 ec 90 06 08       	push   $0x80690ec
 804b55e:	68 d8 4d 06 08       	push   $0x8064dd8
 804b563:	68 73 fd 04 08       	push   $0x804fd73
 804b568:	e8 e3 ce ff ff       	call   8048450 <__isoc99_scanf@plt>
 804b56d:	83 c4 10             	add    $0x10,%esp
 804b570:	83 7d d4 00          	cmpl   $0x0,-0x2c(%ebp)
 804b574:	74 3e                	je     804b5b4 <main+0x2fbf>
 804b576:	83 ec 04             	sub    $0x4,%esp
 804b579:	6a 04                	push   $0x4
 804b57b:	8d 45 e0             	lea    -0x20(%ebp),%eax
 804b57e:	50                   	push   %eax
 804b57f:	68 d8 4d 06 08       	push   $0x8064dd8
 804b584:	e8 d7 ce ff ff       	call   8048460 <strncmp@plt>
 804b589:	83 c4 10             	add    $0x10,%esp
 804b58c:	85 c0                	test   %eax,%eax
 804b58e:	75 24                	jne    804b5b4 <main+0x2fbf>
 804b590:	83 ec 04             	sub    $0x4,%esp
 804b593:	6a 04                	push   $0x4
 804b595:	8d 45 e0             	lea    -0x20(%ebp),%eax
 804b598:	83 c0 04             	add    $0x4,%eax
 804b59b:	50                   	push   %eax
 804b59c:	68 ec 90 06 08       	push   $0x80690ec
 804b5a1:	e8 ba ce ff ff       	call   8048460 <strncmp@plt>
 804b5a6:	83 c4 10             	add    $0x10,%esp
 804b5a9:	85 c0                	test   %eax,%eax
 804b5ab:	75 07                	jne    804b5b4 <main+0x2fbf>
 804b5ad:	b8 01 00 00 00       	mov    $0x1,%eax
 804b5b2:	eb 05                	jmp    804b5b9 <main+0x2fc4>
 804b5b4:	b8 00 00 00 00       	mov    $0x0,%eax
 804b5b9:	89 45 d4             	mov    %eax,-0x2c(%ebp)
 804b5bc:	e9 c0 46 00 00       	jmp    804fc81 <main+0x768c>
 804b5c1:	81 7d dc ef be ad de 	cmpl   $0xdeadbeef,-0x24(%ebp)
 804b5c8:	74 6b                	je     804b635 <main+0x3040>
 804b5ca:	83 ec 04             	sub    $0x4,%esp
 804b5cd:	68 ec 90 06 08       	push   $0x80690ec
 804b5d2:	68 d8 4d 06 08       	push   $0x8064dd8
 804b5d7:	68 73 fd 04 08       	push   $0x804fd73
 804b5dc:	e8 6f ce ff ff       	call   8048450 <__isoc99_scanf@plt>
 804b5e1:	83 c4 10             	add    $0x10,%esp
 804b5e4:	83 7d d4 00          	cmpl   $0x0,-0x2c(%ebp)
 804b5e8:	74 3e                	je     804b628 <main+0x3033>
 804b5ea:	83 ec 04             	sub    $0x4,%esp
 804b5ed:	6a 04                	push   $0x4
 804b5ef:	8d 45 e0             	lea    -0x20(%ebp),%eax
 804b5f2:	50                   	push   %eax
 804b5f3:	68 d8 4d 06 08       	push   $0x8064dd8
 804b5f8:	e8 63 ce ff ff       	call   8048460 <strncmp@plt>
 804b5fd:	83 c4 10             	add    $0x10,%esp
 804b600:	85 c0                	test   %eax,%eax
 804b602:	75 24                	jne    804b628 <main+0x3033>
 804b604:	83 ec 04             	sub    $0x4,%esp
 804b607:	6a 04                	push   $0x4
 804b609:	8d 45 e0             	lea    -0x20(%ebp),%eax
 804b60c:	83 c0 04             	add    $0x4,%eax
 804b60f:	50                   	push   %eax
 804b610:	68 ec 90 06 08       	push   $0x80690ec
 804b615:	e8 46 ce ff ff       	call   8048460 <strncmp@plt>
 804b61a:	83 c4 10             	add    $0x10,%esp
 804b61d:	85 c0                	test   %eax,%eax
 804b61f:	75 07                	jne    804b628 <main+0x3033>
 804b621:	b8 01 00 00 00       	mov    $0x1,%eax
 804b626:	eb 05                	jmp    804b62d <main+0x3038>
 804b628:	b8 00 00 00 00       	mov    $0x0,%eax
 804b62d:	89 45 d4             	mov    %eax,-0x2c(%ebp)
 804b630:	e9 4c 46 00 00       	jmp    804fc81 <main+0x768c>
 804b635:	83 ec 04             	sub    $0x4,%esp
 804b638:	68 ec 90 06 08       	push   $0x80690ec
 804b63d:	68 d8 4d 06 08       	push   $0x8064dd8
 804b642:	68 73 fd 04 08       	push   $0x804fd73
 804b647:	e8 04 ce ff ff       	call   8048450 <__isoc99_scanf@plt>
 804b64c:	83 c4 10             	add    $0x10,%esp
 804b64f:	83 7d d4 00          	cmpl   $0x0,-0x2c(%ebp)
 804b653:	74 3e                	je     804b693 <main+0x309e>
 804b655:	83 ec 04             	sub    $0x4,%esp
 804b658:	6a 04                	push   $0x4
 804b65a:	8d 45 e0             	lea    -0x20(%ebp),%eax
 804b65d:	50                   	push   %eax
 804b65e:	68 d8 4d 06 08       	push   $0x8064dd8
 804b663:	e8 f8 cd ff ff       	call   8048460 <strncmp@plt>
 804b668:	83 c4 10             	add    $0x10,%esp
 804b66b:	85 c0                	test   %eax,%eax
 804b66d:	75 24                	jne    804b693 <main+0x309e>
 804b66f:	83 ec 04             	sub    $0x4,%esp
 804b672:	6a 04                	push   $0x4
 804b674:	8d 45 e0             	lea    -0x20(%ebp),%eax
 804b677:	83 c0 04             	add    $0x4,%eax
 804b67a:	50                   	push   %eax
 804b67b:	68 ec 90 06 08       	push   $0x80690ec
 804b680:	e8 db cd ff ff       	call   8048460 <strncmp@plt>
 804b685:	83 c4 10             	add    $0x10,%esp
 804b688:	85 c0                	test   %eax,%eax
 804b68a:	75 07                	jne    804b693 <main+0x309e>
 804b68c:	b8 01 00 00 00       	mov    $0x1,%eax
 804b691:	eb 05                	jmp    804b698 <main+0x30a3>
 804b693:	b8 00 00 00 00       	mov    $0x0,%eax
 804b698:	89 45 d4             	mov    %eax,-0x2c(%ebp)
 804b69b:	e9 e1 45 00 00       	jmp    804fc81 <main+0x768c>
 804b6a0:	81 7d dc ef be ad de 	cmpl   $0xdeadbeef,-0x24(%ebp)
 804b6a7:	0f 84 cb 01 00 00    	je     804b878 <main+0x3283>
 804b6ad:	81 7d dc ef be ad de 	cmpl   $0xdeadbeef,-0x24(%ebp)
 804b6b4:	0f 84 df 00 00 00    	je     804b799 <main+0x31a4>
 804b6ba:	81 7d dc ef be ad de 	cmpl   $0xdeadbeef,-0x24(%ebp)
 804b6c1:	75 6b                	jne    804b72e <main+0x3139>
 804b6c3:	83 ec 04             	sub    $0x4,%esp
 804b6c6:	68 ec 90 06 08       	push   $0x80690ec
 804b6cb:	68 d8 4d 06 08       	push   $0x8064dd8
 804b6d0:	68 73 fd 04 08       	push   $0x804fd73
 804b6d5:	e8 76 cd ff ff       	call   8048450 <__isoc99_scanf@plt>
 804b6da:	83 c4 10             	add    $0x10,%esp
 804b6dd:	83 7d d4 00          	cmpl   $0x0,-0x2c(%ebp)
 804b6e1:	74 3e                	je     804b721 <main+0x312c>
 804b6e3:	83 ec 04             	sub    $0x4,%esp
 804b6e6:	6a 04                	push   $0x4
 804b6e8:	8d 45 e0             	lea    -0x20(%ebp),%eax
 804b6eb:	50                   	push   %eax
 804b6ec:	68 d8 4d 06 08       	push   $0x8064dd8
 804b6f1:	e8 6a cd ff ff       	call   8048460 <strncmp@plt>
 804b6f6:	83 c4 10             	add    $0x10,%esp
 804b6f9:	85 c0                	test   %eax,%eax
 804b6fb:	75 24                	jne    804b721 <main+0x312c>
 804b6fd:	83 ec 04             	sub    $0x4,%esp
 804b700:	6a 04                	push   $0x4
 804b702:	8d 45 e0             	lea    -0x20(%ebp),%eax
 804b705:	83 c0 04             	add    $0x4,%eax
 804b708:	50                   	push   %eax
 804b709:	68 ec 90 06 08       	push   $0x80690ec
 804b70e:	e8 4d cd ff ff       	call   8048460 <strncmp@plt>
 804b713:	83 c4 10             	add    $0x10,%esp
 804b716:	85 c0                	test   %eax,%eax
 804b718:	75 07                	jne    804b721 <main+0x312c>
 804b71a:	b8 01 00 00 00       	mov    $0x1,%eax
 804b71f:	eb 05                	jmp    804b726 <main+0x3131>
 804b721:	b8 00 00 00 00       	mov    $0x0,%eax
 804b726:	89 45 d4             	mov    %eax,-0x2c(%ebp)
 804b729:	e9 53 45 00 00       	jmp    804fc81 <main+0x768c>
 804b72e:	83 ec 04             	sub    $0x4,%esp
 804b731:	68 ec 90 06 08       	push   $0x80690ec
 804b736:	68 d8 4d 06 08       	push   $0x8064dd8
 804b73b:	68 73 fd 04 08       	push   $0x804fd73
 804b740:	e8 0b cd ff ff       	call   8048450 <__isoc99_scanf@plt>
 804b745:	83 c4 10             	add    $0x10,%esp
 804b748:	83 7d d4 00          	cmpl   $0x0,-0x2c(%ebp)
 804b74c:	74 3e                	je     804b78c <main+0x3197>
 804b74e:	83 ec 04             	sub    $0x4,%esp
 804b751:	6a 04                	push   $0x4
 804b753:	8d 45 e0             	lea    -0x20(%ebp),%eax
 804b756:	50                   	push   %eax
 804b757:	68 d8 4d 06 08       	push   $0x8064dd8
 804b75c:	e8 ff cc ff ff       	call   8048460 <strncmp@plt>
 804b761:	83 c4 10             	add    $0x10,%esp
 804b764:	85 c0                	test   %eax,%eax
 804b766:	75 24                	jne    804b78c <main+0x3197>
 804b768:	83 ec 04             	sub    $0x4,%esp
 804b76b:	6a 04                	push   $0x4
 804b76d:	8d 45 e0             	lea    -0x20(%ebp),%eax
 804b770:	83 c0 04             	add    $0x4,%eax
 804b773:	50                   	push   %eax
 804b774:	68 ec 90 06 08       	push   $0x80690ec
 804b779:	e8 e2 cc ff ff       	call   8048460 <strncmp@plt>
 804b77e:	83 c4 10             	add    $0x10,%esp
 804b781:	85 c0                	test   %eax,%eax
 804b783:	75 07                	jne    804b78c <main+0x3197>
 804b785:	b8 01 00 00 00       	mov    $0x1,%eax
 804b78a:	eb 05                	jmp    804b791 <main+0x319c>
 804b78c:	b8 00 00 00 00       	mov    $0x0,%eax
 804b791:	89 45 d4             	mov    %eax,-0x2c(%ebp)
 804b794:	e9 e8 44 00 00       	jmp    804fc81 <main+0x768c>
 804b799:	81 7d dc ef be ad de 	cmpl   $0xdeadbeef,-0x24(%ebp)
 804b7a0:	75 6b                	jne    804b80d <main+0x3218>
 804b7a2:	83 ec 04             	sub    $0x4,%esp
 804b7a5:	68 ec 90 06 08       	push   $0x80690ec
 804b7aa:	68 d8 4d 06 08       	push   $0x8064dd8
 804b7af:	68 73 fd 04 08       	push   $0x804fd73
 804b7b4:	e8 97 cc ff ff       	call   8048450 <__isoc99_scanf@plt>
 804b7b9:	83 c4 10             	add    $0x10,%esp
 804b7bc:	83 7d d4 00          	cmpl   $0x0,-0x2c(%ebp)
 804b7c0:	74 3e                	je     804b800 <main+0x320b>
 804b7c2:	83 ec 04             	sub    $0x4,%esp
 804b7c5:	6a 04                	push   $0x4
 804b7c7:	8d 45 e0             	lea    -0x20(%ebp),%eax
 804b7ca:	50                   	push   %eax
 804b7cb:	68 d8 4d 06 08       	push   $0x8064dd8
 804b7d0:	e8 8b cc ff ff       	call   8048460 <strncmp@plt>
 804b7d5:	83 c4 10             	add    $0x10,%esp
 804b7d8:	85 c0                	test   %eax,%eax
 804b7da:	75 24                	jne    804b800 <main+0x320b>
 804b7dc:	83 ec 04             	sub    $0x4,%esp
 804b7df:	6a 04                	push   $0x4
 804b7e1:	8d 45 e0             	lea    -0x20(%ebp),%eax
 804b7e4:	83 c0 04             	add    $0x4,%eax
 804b7e7:	50                   	push   %eax
 804b7e8:	68 ec 90 06 08       	push   $0x80690ec
 804b7ed:	e8 6e cc ff ff       	call   8048460 <strncmp@plt>
 804b7f2:	83 c4 10             	add    $0x10,%esp
 804b7f5:	85 c0                	test   %eax,%eax
 804b7f7:	75 07                	jne    804b800 <main+0x320b>
 804b7f9:	b8 01 00 00 00       	mov    $0x1,%eax
 804b7fe:	eb 05                	jmp    804b805 <main+0x3210>
 804b800:	b8 00 00 00 00       	mov    $0x0,%eax
 804b805:	89 45 d4             	mov    %eax,-0x2c(%ebp)
 804b808:	e9 74 44 00 00       	jmp    804fc81 <main+0x768c>
 804b80d:	83 ec 04             	sub    $0x4,%esp
 804b810:	68 ec 90 06 08       	push   $0x80690ec
 804b815:	68 d8 4d 06 08       	push   $0x8064dd8
 804b81a:	68 73 fd 04 08       	push   $0x804fd73
 804b81f:	e8 2c cc ff ff       	call   8048450 <__isoc99_scanf@plt>
 804b824:	83 c4 10             	add    $0x10,%esp
 804b827:	83 7d d4 00          	cmpl   $0x0,-0x2c(%ebp)
 804b82b:	74 3e                	je     804b86b <main+0x3276>
 804b82d:	83 ec 04             	sub    $0x4,%esp
 804b830:	6a 04                	push   $0x4
 804b832:	8d 45 e0             	lea    -0x20(%ebp),%eax
 804b835:	50                   	push   %eax
 804b836:	68 d8 4d 06 08       	push   $0x8064dd8
 804b83b:	e8 20 cc ff ff       	call   8048460 <strncmp@plt>
 804b840:	83 c4 10             	add    $0x10,%esp
 804b843:	85 c0                	test   %eax,%eax
 804b845:	75 24                	jne    804b86b <main+0x3276>
 804b847:	83 ec 04             	sub    $0x4,%esp
 804b84a:	6a 04                	push   $0x4
 804b84c:	8d 45 e0             	lea    -0x20(%ebp),%eax
 804b84f:	83 c0 04             	add    $0x4,%eax
 804b852:	50                   	push   %eax
 804b853:	68 ec 90 06 08       	push   $0x80690ec
 804b858:	e8 03 cc ff ff       	call   8048460 <strncmp@plt>
 804b85d:	83 c4 10             	add    $0x10,%esp
 804b860:	85 c0                	test   %eax,%eax
 804b862:	75 07                	jne    804b86b <main+0x3276>
 804b864:	b8 01 00 00 00       	mov    $0x1,%eax
 804b869:	eb 05                	jmp    804b870 <main+0x327b>
 804b86b:	b8 00 00 00 00       	mov    $0x0,%eax
 804b870:	89 45 d4             	mov    %eax,-0x2c(%ebp)
 804b873:	e9 09 44 00 00       	jmp    804fc81 <main+0x768c>
 804b878:	81 7d dc ef be ad de 	cmpl   $0xdeadbeef,-0x24(%ebp)
 804b87f:	0f 85 df 00 00 00    	jne    804b964 <main+0x336f>
 804b885:	81 7d dc ef be ad de 	cmpl   $0xdeadbeef,-0x24(%ebp)
 804b88c:	74 6b                	je     804b8f9 <main+0x3304>
 804b88e:	83 ec 04             	sub    $0x4,%esp
 804b891:	68 ec 90 06 08       	push   $0x80690ec
 804b896:	68 d8 4d 06 08       	push   $0x8064dd8
 804b89b:	68 73 fd 04 08       	push   $0x804fd73
 804b8a0:	e8 ab cb ff ff       	call   8048450 <__isoc99_scanf@plt>
 804b8a5:	83 c4 10             	add    $0x10,%esp
 804b8a8:	83 7d d4 00          	cmpl   $0x0,-0x2c(%ebp)
 804b8ac:	74 3e                	je     804b8ec <main+0x32f7>
 804b8ae:	83 ec 04             	sub    $0x4,%esp
 804b8b1:	6a 04                	push   $0x4
 804b8b3:	8d 45 e0             	lea    -0x20(%ebp),%eax
 804b8b6:	50                   	push   %eax
 804b8b7:	68 d8 4d 06 08       	push   $0x8064dd8
 804b8bc:	e8 9f cb ff ff       	call   8048460 <strncmp@plt>
 804b8c1:	83 c4 10             	add    $0x10,%esp
 804b8c4:	85 c0                	test   %eax,%eax
 804b8c6:	75 24                	jne    804b8ec <main+0x32f7>
 804b8c8:	83 ec 04             	sub    $0x4,%esp
 804b8cb:	6a 04                	push   $0x4
 804b8cd:	8d 45 e0             	lea    -0x20(%ebp),%eax
 804b8d0:	83 c0 04             	add    $0x4,%eax
 804b8d3:	50                   	push   %eax
 804b8d4:	68 ec 90 06 08       	push   $0x80690ec
 804b8d9:	e8 82 cb ff ff       	call   8048460 <strncmp@plt>
 804b8de:	83 c4 10             	add    $0x10,%esp
 804b8e1:	85 c0                	test   %eax,%eax
 804b8e3:	75 07                	jne    804b8ec <main+0x32f7>
 804b8e5:	b8 01 00 00 00       	mov    $0x1,%eax
 804b8ea:	eb 05                	jmp    804b8f1 <main+0x32fc>
 804b8ec:	b8 00 00 00 00       	mov    $0x0,%eax
 804b8f1:	89 45 d4             	mov    %eax,-0x2c(%ebp)
 804b8f4:	e9 88 43 00 00       	jmp    804fc81 <main+0x768c>
 804b8f9:	83 ec 04             	sub    $0x4,%esp
 804b8fc:	68 ec 90 06 08       	push   $0x80690ec
 804b901:	68 d8 4d 06 08       	push   $0x8064dd8
 804b906:	68 73 fd 04 08       	push   $0x804fd73
 804b90b:	e8 40 cb ff ff       	call   8048450 <__isoc99_scanf@plt>
 804b910:	83 c4 10             	add    $0x10,%esp
 804b913:	83 7d d4 00          	cmpl   $0x0,-0x2c(%ebp)
 804b917:	74 3e                	je     804b957 <main+0x3362>
 804b919:	83 ec 04             	sub    $0x4,%esp
 804b91c:	6a 04                	push   $0x4
 804b91e:	8d 45 e0             	lea    -0x20(%ebp),%eax
 804b921:	50                   	push   %eax
 804b922:	68 d8 4d 06 08       	push   $0x8064dd8
 804b927:	e8 34 cb ff ff       	call   8048460 <strncmp@plt>
 804b92c:	83 c4 10             	add    $0x10,%esp
 804b92f:	85 c0                	test   %eax,%eax
 804b931:	75 24                	jne    804b957 <main+0x3362>
 804b933:	83 ec 04             	sub    $0x4,%esp
 804b936:	6a 04                	push   $0x4
 804b938:	8d 45 e0             	lea    -0x20(%ebp),%eax
 804b93b:	83 c0 04             	add    $0x4,%eax
 804b93e:	50                   	push   %eax
 804b93f:	68 ec 90 06 08       	push   $0x80690ec
 804b944:	e8 17 cb ff ff       	call   8048460 <strncmp@plt>
 804b949:	83 c4 10             	add    $0x10,%esp
 804b94c:	85 c0                	test   %eax,%eax
 804b94e:	75 07                	jne    804b957 <main+0x3362>
 804b950:	b8 01 00 00 00       	mov    $0x1,%eax
 804b955:	eb 05                	jmp    804b95c <main+0x3367>
 804b957:	b8 00 00 00 00       	mov    $0x0,%eax
 804b95c:	89 45 d4             	mov    %eax,-0x2c(%ebp)
 804b95f:	e9 1d 43 00 00       	jmp    804fc81 <main+0x768c>
 804b964:	81 7d dc ef be ad de 	cmpl   $0xdeadbeef,-0x24(%ebp)
 804b96b:	75 6b                	jne    804b9d8 <main+0x33e3>
 804b96d:	83 ec 04             	sub    $0x4,%esp
 804b970:	68 ec 90 06 08       	push   $0x80690ec
 804b975:	68 d8 4d 06 08       	push   $0x8064dd8
 804b97a:	68 73 fd 04 08       	push   $0x804fd73
 804b97f:	e8 cc ca ff ff       	call   8048450 <__isoc99_scanf@plt>
 804b984:	83 c4 10             	add    $0x10,%esp
 804b987:	83 7d d4 00          	cmpl   $0x0,-0x2c(%ebp)
 804b98b:	74 3e                	je     804b9cb <main+0x33d6>
 804b98d:	83 ec 04             	sub    $0x4,%esp
 804b990:	6a 04                	push   $0x4
 804b992:	8d 45 e0             	lea    -0x20(%ebp),%eax
 804b995:	50                   	push   %eax
 804b996:	68 d8 4d 06 08       	push   $0x8064dd8
 804b99b:	e8 c0 ca ff ff       	call   8048460 <strncmp@plt>
 804b9a0:	83 c4 10             	add    $0x10,%esp
 804b9a3:	85 c0                	test   %eax,%eax
 804b9a5:	75 24                	jne    804b9cb <main+0x33d6>
 804b9a7:	83 ec 04             	sub    $0x4,%esp
 804b9aa:	6a 04                	push   $0x4
 804b9ac:	8d 45 e0             	lea    -0x20(%ebp),%eax
 804b9af:	83 c0 04             	add    $0x4,%eax
 804b9b2:	50                   	push   %eax
 804b9b3:	68 ec 90 06 08       	push   $0x80690ec
 804b9b8:	e8 a3 ca ff ff       	call   8048460 <strncmp@plt>
 804b9bd:	83 c4 10             	add    $0x10,%esp
 804b9c0:	85 c0                	test   %eax,%eax
 804b9c2:	75 07                	jne    804b9cb <main+0x33d6>
 804b9c4:	b8 01 00 00 00       	mov    $0x1,%eax
 804b9c9:	eb 05                	jmp    804b9d0 <main+0x33db>
 804b9cb:	b8 00 00 00 00       	mov    $0x0,%eax
 804b9d0:	89 45 d4             	mov    %eax,-0x2c(%ebp)
 804b9d3:	e9 a9 42 00 00       	jmp    804fc81 <main+0x768c>
 804b9d8:	83 ec 04             	sub    $0x4,%esp
 804b9db:	68 ec 90 06 08       	push   $0x80690ec
 804b9e0:	68 d8 4d 06 08       	push   $0x8064dd8
 804b9e5:	68 73 fd 04 08       	push   $0x804fd73
 804b9ea:	e8 61 ca ff ff       	call   8048450 <__isoc99_scanf@plt>
 804b9ef:	83 c4 10             	add    $0x10,%esp
 804b9f2:	83 7d d4 00          	cmpl   $0x0,-0x2c(%ebp)
 804b9f6:	74 3e                	je     804ba36 <main+0x3441>
 804b9f8:	83 ec 04             	sub    $0x4,%esp
 804b9fb:	6a 04                	push   $0x4
 804b9fd:	8d 45 e0             	lea    -0x20(%ebp),%eax
 804ba00:	50                   	push   %eax
 804ba01:	68 d8 4d 06 08       	push   $0x8064dd8
 804ba06:	e8 55 ca ff ff       	call   8048460 <strncmp@plt>
 804ba0b:	83 c4 10             	add    $0x10,%esp
 804ba0e:	85 c0                	test   %eax,%eax
 804ba10:	75 24                	jne    804ba36 <main+0x3441>
 804ba12:	83 ec 04             	sub    $0x4,%esp
 804ba15:	6a 04                	push   $0x4
 804ba17:	8d 45 e0             	lea    -0x20(%ebp),%eax
 804ba1a:	83 c0 04             	add    $0x4,%eax
 804ba1d:	50                   	push   %eax
 804ba1e:	68 ec 90 06 08       	push   $0x80690ec
 804ba23:	e8 38 ca ff ff       	call   8048460 <strncmp@plt>
 804ba28:	83 c4 10             	add    $0x10,%esp
 804ba2b:	85 c0                	test   %eax,%eax
 804ba2d:	75 07                	jne    804ba36 <main+0x3441>
 804ba2f:	b8 01 00 00 00       	mov    $0x1,%eax
 804ba34:	eb 05                	jmp    804ba3b <main+0x3446>
 804ba36:	b8 00 00 00 00       	mov    $0x0,%eax
 804ba3b:	89 45 d4             	mov    %eax,-0x2c(%ebp)
 804ba3e:	e9 3e 42 00 00       	jmp    804fc81 <main+0x768c>
 804ba43:	81 7d dc ef be ad de 	cmpl   $0xdeadbeef,-0x24(%ebp)
 804ba4a:	0f 85 a3 03 00 00    	jne    804bdf3 <main+0x37fe>
 804ba50:	81 7d dc ef be ad de 	cmpl   $0xdeadbeef,-0x24(%ebp)
 804ba57:	0f 84 cb 01 00 00    	je     804bc28 <main+0x3633>
 804ba5d:	81 7d dc ef be ad de 	cmpl   $0xdeadbeef,-0x24(%ebp)
 804ba64:	0f 85 df 00 00 00    	jne    804bb49 <main+0x3554>
 804ba6a:	81 7d dc ef be ad de 	cmpl   $0xdeadbeef,-0x24(%ebp)
 804ba71:	74 6b                	je     804bade <main+0x34e9>
 804ba73:	83 ec 04             	sub    $0x4,%esp
 804ba76:	68 ec 90 06 08       	push   $0x80690ec
 804ba7b:	68 d8 4d 06 08       	push   $0x8064dd8
 804ba80:	68 73 fd 04 08       	push   $0x804fd73
 804ba85:	e8 c6 c9 ff ff       	call   8048450 <__isoc99_scanf@plt>
 804ba8a:	83 c4 10             	add    $0x10,%esp
 804ba8d:	83 7d d4 00          	cmpl   $0x0,-0x2c(%ebp)
 804ba91:	74 3e                	je     804bad1 <main+0x34dc>
 804ba93:	83 ec 04             	sub    $0x4,%esp
 804ba96:	6a 04                	push   $0x4
 804ba98:	8d 45 e0             	lea    -0x20(%ebp),%eax
 804ba9b:	50                   	push   %eax
 804ba9c:	68 d8 4d 06 08       	push   $0x8064dd8
 804baa1:	e8 ba c9 ff ff       	call   8048460 <strncmp@plt>
 804baa6:	83 c4 10             	add    $0x10,%esp
 804baa9:	85 c0                	test   %eax,%eax
 804baab:	75 24                	jne    804bad1 <main+0x34dc>
 804baad:	83 ec 04             	sub    $0x4,%esp
 804bab0:	6a 04                	push   $0x4
 804bab2:	8d 45 e0             	lea    -0x20(%ebp),%eax
 804bab5:	83 c0 04             	add    $0x4,%eax
 804bab8:	50                   	push   %eax
 804bab9:	68 ec 90 06 08       	push   $0x80690ec
 804babe:	e8 9d c9 ff ff       	call   8048460 <strncmp@plt>
 804bac3:	83 c4 10             	add    $0x10,%esp
 804bac6:	85 c0                	test   %eax,%eax
 804bac8:	75 07                	jne    804bad1 <main+0x34dc>
 804baca:	b8 01 00 00 00       	mov    $0x1,%eax
 804bacf:	eb 05                	jmp    804bad6 <main+0x34e1>
 804bad1:	b8 00 00 00 00       	mov    $0x0,%eax
 804bad6:	89 45 d4             	mov    %eax,-0x2c(%ebp)
 804bad9:	e9 a3 41 00 00       	jmp    804fc81 <main+0x768c>
 804bade:	83 ec 04             	sub    $0x4,%esp
 804bae1:	68 ec 90 06 08       	push   $0x80690ec
 804bae6:	68 d8 4d 06 08       	push   $0x8064dd8
 804baeb:	68 73 fd 04 08       	push   $0x804fd73
 804baf0:	e8 5b c9 ff ff       	call   8048450 <__isoc99_scanf@plt>
 804baf5:	83 c4 10             	add    $0x10,%esp
 804baf8:	83 7d d4 00          	cmpl   $0x0,-0x2c(%ebp)
 804bafc:	74 3e                	je     804bb3c <main+0x3547>
 804bafe:	83 ec 04             	sub    $0x4,%esp
 804bb01:	6a 04                	push   $0x4
 804bb03:	8d 45 e0             	lea    -0x20(%ebp),%eax
 804bb06:	50                   	push   %eax
 804bb07:	68 d8 4d 06 08       	push   $0x8064dd8
 804bb0c:	e8 4f c9 ff ff       	call   8048460 <strncmp@plt>
 804bb11:	83 c4 10             	add    $0x10,%esp
 804bb14:	85 c0                	test   %eax,%eax
 804bb16:	75 24                	jne    804bb3c <main+0x3547>
 804bb18:	83 ec 04             	sub    $0x4,%esp
 804bb1b:	6a 04                	push   $0x4
 804bb1d:	8d 45 e0             	lea    -0x20(%ebp),%eax
 804bb20:	83 c0 04             	add    $0x4,%eax
 804bb23:	50                   	push   %eax
 804bb24:	68 ec 90 06 08       	push   $0x80690ec
 804bb29:	e8 32 c9 ff ff       	call   8048460 <strncmp@plt>
 804bb2e:	83 c4 10             	add    $0x10,%esp
 804bb31:	85 c0                	test   %eax,%eax
 804bb33:	75 07                	jne    804bb3c <main+0x3547>
 804bb35:	b8 01 00 00 00       	mov    $0x1,%eax
 804bb3a:	eb 05                	jmp    804bb41 <main+0x354c>
 804bb3c:	b8 00 00 00 00       	mov    $0x0,%eax
 804bb41:	89 45 d4             	mov    %eax,-0x2c(%ebp)
 804bb44:	e9 38 41 00 00       	jmp    804fc81 <main+0x768c>
 804bb49:	81 7d dc ef be ad de 	cmpl   $0xdeadbeef,-0x24(%ebp)
 804bb50:	74 6b                	je     804bbbd <main+0x35c8>
 804bb52:	83 ec 04             	sub    $0x4,%esp
 804bb55:	68 ec 90 06 08       	push   $0x80690ec
 804bb5a:	68 d8 4d 06 08       	push   $0x8064dd8
 804bb5f:	68 73 fd 04 08       	push   $0x804fd73
 804bb64:	e8 e7 c8 ff ff       	call   8048450 <__isoc99_scanf@plt>
 804bb69:	83 c4 10             	add    $0x10,%esp
 804bb6c:	83 7d d4 00          	cmpl   $0x0,-0x2c(%ebp)
 804bb70:	74 3e                	je     804bbb0 <main+0x35bb>
 804bb72:	83 ec 04             	sub    $0x4,%esp
 804bb75:	6a 04                	push   $0x4
 804bb77:	8d 45 e0             	lea    -0x20(%ebp),%eax
 804bb7a:	50                   	push   %eax
 804bb7b:	68 d8 4d 06 08       	push   $0x8064dd8
 804bb80:	e8 db c8 ff ff       	call   8048460 <strncmp@plt>
 804bb85:	83 c4 10             	add    $0x10,%esp
 804bb88:	85 c0                	test   %eax,%eax
 804bb8a:	75 24                	jne    804bbb0 <main+0x35bb>
 804bb8c:	83 ec 04             	sub    $0x4,%esp
 804bb8f:	6a 04                	push   $0x4
 804bb91:	8d 45 e0             	lea    -0x20(%ebp),%eax
 804bb94:	83 c0 04             	add    $0x4,%eax
 804bb97:	50                   	push   %eax
 804bb98:	68 ec 90 06 08       	push   $0x80690ec
 804bb9d:	e8 be c8 ff ff       	call   8048460 <strncmp@plt>
 804bba2:	83 c4 10             	add    $0x10,%esp
 804bba5:	85 c0                	test   %eax,%eax
 804bba7:	75 07                	jne    804bbb0 <main+0x35bb>
 804bba9:	b8 01 00 00 00       	mov    $0x1,%eax
 804bbae:	eb 05                	jmp    804bbb5 <main+0x35c0>
 804bbb0:	b8 00 00 00 00       	mov    $0x0,%eax
 804bbb5:	89 45 d4             	mov    %eax,-0x2c(%ebp)
 804bbb8:	e9 c4 40 00 00       	jmp    804fc81 <main+0x768c>
 804bbbd:	83 ec 04             	sub    $0x4,%esp
 804bbc0:	68 ec 90 06 08       	push   $0x80690ec
 804bbc5:	68 d8 4d 06 08       	push   $0x8064dd8
 804bbca:	68 73 fd 04 08       	push   $0x804fd73
 804bbcf:	e8 7c c8 ff ff       	call   8048450 <__isoc99_scanf@plt>
 804bbd4:	83 c4 10             	add    $0x10,%esp
 804bbd7:	83 7d d4 00          	cmpl   $0x0,-0x2c(%ebp)
 804bbdb:	74 3e                	je     804bc1b <main+0x3626>
 804bbdd:	83 ec 04             	sub    $0x4,%esp
 804bbe0:	6a 04                	push   $0x4
 804bbe2:	8d 45 e0             	lea    -0x20(%ebp),%eax
 804bbe5:	50                   	push   %eax
 804bbe6:	68 d8 4d 06 08       	push   $0x8064dd8
 804bbeb:	e8 70 c8 ff ff       	call   8048460 <strncmp@plt>
 804bbf0:	83 c4 10             	add    $0x10,%esp
 804bbf3:	85 c0                	test   %eax,%eax
 804bbf5:	75 24                	jne    804bc1b <main+0x3626>
 804bbf7:	83 ec 04             	sub    $0x4,%esp
 804bbfa:	6a 04                	push   $0x4
 804bbfc:	8d 45 e0             	lea    -0x20(%ebp),%eax
 804bbff:	83 c0 04             	add    $0x4,%eax
 804bc02:	50                   	push   %eax
 804bc03:	68 ec 90 06 08       	push   $0x80690ec
 804bc08:	e8 53 c8 ff ff       	call   8048460 <strncmp@plt>
 804bc0d:	83 c4 10             	add    $0x10,%esp
 804bc10:	85 c0                	test   %eax,%eax
 804bc12:	75 07                	jne    804bc1b <main+0x3626>
 804bc14:	b8 01 00 00 00       	mov    $0x1,%eax
 804bc19:	eb 05                	jmp    804bc20 <main+0x362b>
 804bc1b:	b8 00 00 00 00       	mov    $0x0,%eax
 804bc20:	89 45 d4             	mov    %eax,-0x2c(%ebp)
 804bc23:	e9 59 40 00 00       	jmp    804fc81 <main+0x768c>
 804bc28:	81 7d dc ef be ad de 	cmpl   $0xdeadbeef,-0x24(%ebp)
 804bc2f:	0f 84 df 00 00 00    	je     804bd14 <main+0x371f>
 804bc35:	81 7d dc ef be ad de 	cmpl   $0xdeadbeef,-0x24(%ebp)
 804bc3c:	74 6b                	je     804bca9 <main+0x36b4>
 804bc3e:	83 ec 04             	sub    $0x4,%esp
 804bc41:	68 ec 90 06 08       	push   $0x80690ec
 804bc46:	68 d8 4d 06 08       	push   $0x8064dd8
 804bc4b:	68 73 fd 04 08       	push   $0x804fd73
 804bc50:	e8 fb c7 ff ff       	call   8048450 <__isoc99_scanf@plt>
 804bc55:	83 c4 10             	add    $0x10,%esp
 804bc58:	83 7d d4 00          	cmpl   $0x0,-0x2c(%ebp)
 804bc5c:	74 3e                	je     804bc9c <main+0x36a7>
 804bc5e:	83 ec 04             	sub    $0x4,%esp
 804bc61:	6a 04                	push   $0x4
 804bc63:	8d 45 e0             	lea    -0x20(%ebp),%eax
 804bc66:	50                   	push   %eax
 804bc67:	68 d8 4d 06 08       	push   $0x8064dd8
 804bc6c:	e8 ef c7 ff ff       	call   8048460 <strncmp@plt>
 804bc71:	83 c4 10             	add    $0x10,%esp
 804bc74:	85 c0                	test   %eax,%eax
 804bc76:	75 24                	jne    804bc9c <main+0x36a7>
 804bc78:	83 ec 04             	sub    $0x4,%esp
 804bc7b:	6a 04                	push   $0x4
 804bc7d:	8d 45 e0             	lea    -0x20(%ebp),%eax
 804bc80:	83 c0 04             	add    $0x4,%eax
 804bc83:	50                   	push   %eax
 804bc84:	68 ec 90 06 08       	push   $0x80690ec
 804bc89:	e8 d2 c7 ff ff       	call   8048460 <strncmp@plt>
 804bc8e:	83 c4 10             	add    $0x10,%esp
 804bc91:	85 c0                	test   %eax,%eax
 804bc93:	75 07                	jne    804bc9c <main+0x36a7>
 804bc95:	b8 01 00 00 00       	mov    $0x1,%eax
 804bc9a:	eb 05                	jmp    804bca1 <main+0x36ac>
 804bc9c:	b8 00 00 00 00       	mov    $0x0,%eax
 804bca1:	89 45 d4             	mov    %eax,-0x2c(%ebp)
 804bca4:	e9 d8 3f 00 00       	jmp    804fc81 <main+0x768c>
 804bca9:	83 ec 04             	sub    $0x4,%esp
 804bcac:	68 ec 90 06 08       	push   $0x80690ec
 804bcb1:	68 d8 4d 06 08       	push   $0x8064dd8
 804bcb6:	68 73 fd 04 08       	push   $0x804fd73
 804bcbb:	e8 90 c7 ff ff       	call   8048450 <__isoc99_scanf@plt>
 804bcc0:	83 c4 10             	add    $0x10,%esp
 804bcc3:	83 7d d4 00          	cmpl   $0x0,-0x2c(%ebp)
 804bcc7:	74 3e                	je     804bd07 <main+0x3712>
 804bcc9:	83 ec 04             	sub    $0x4,%esp
 804bccc:	6a 04                	push   $0x4
 804bcce:	8d 45 e0             	lea    -0x20(%ebp),%eax
 804bcd1:	50                   	push   %eax
 804bcd2:	68 d8 4d 06 08       	push   $0x8064dd8
 804bcd7:	e8 84 c7 ff ff       	call   8048460 <strncmp@plt>
 804bcdc:	83 c4 10             	add    $0x10,%esp
 804bcdf:	85 c0                	test   %eax,%eax
 804bce1:	75 24                	jne    804bd07 <main+0x3712>
 804bce3:	83 ec 04             	sub    $0x4,%esp
 804bce6:	6a 04                	push   $0x4
 804bce8:	8d 45 e0             	lea    -0x20(%ebp),%eax
 804bceb:	83 c0 04             	add    $0x4,%eax
 804bcee:	50                   	push   %eax
 804bcef:	68 ec 90 06 08       	push   $0x80690ec
 804bcf4:	e8 67 c7 ff ff       	call   8048460 <strncmp@plt>
 804bcf9:	83 c4 10             	add    $0x10,%esp
 804bcfc:	85 c0                	test   %eax,%eax
 804bcfe:	75 07                	jne    804bd07 <main+0x3712>
 804bd00:	b8 01 00 00 00       	mov    $0x1,%eax
 804bd05:	eb 05                	jmp    804bd0c <main+0x3717>
 804bd07:	b8 00 00 00 00       	mov    $0x0,%eax
 804bd0c:	89 45 d4             	mov    %eax,-0x2c(%ebp)
 804bd0f:	e9 6d 3f 00 00       	jmp    804fc81 <main+0x768c>
 804bd14:	81 7d dc ef be ad de 	cmpl   $0xdeadbeef,-0x24(%ebp)
 804bd1b:	74 6b                	je     804bd88 <main+0x3793>
 804bd1d:	83 ec 04             	sub    $0x4,%esp
 804bd20:	68 ec 90 06 08       	push   $0x80690ec
 804bd25:	68 d8 4d 06 08       	push   $0x8064dd8
 804bd2a:	68 73 fd 04 08       	push   $0x804fd73
 804bd2f:	e8 1c c7 ff ff       	call   8048450 <__isoc99_scanf@plt>
 804bd34:	83 c4 10             	add    $0x10,%esp
 804bd37:	83 7d d4 00          	cmpl   $0x0,-0x2c(%ebp)
 804bd3b:	74 3e                	je     804bd7b <main+0x3786>
 804bd3d:	83 ec 04             	sub    $0x4,%esp
 804bd40:	6a 04                	push   $0x4
 804bd42:	8d 45 e0             	lea    -0x20(%ebp),%eax
 804bd45:	50                   	push   %eax
 804bd46:	68 d8 4d 06 08       	push   $0x8064dd8
 804bd4b:	e8 10 c7 ff ff       	call   8048460 <strncmp@plt>
 804bd50:	83 c4 10             	add    $0x10,%esp
 804bd53:	85 c0                	test   %eax,%eax
 804bd55:	75 24                	jne    804bd7b <main+0x3786>
 804bd57:	83 ec 04             	sub    $0x4,%esp
 804bd5a:	6a 04                	push   $0x4
 804bd5c:	8d 45 e0             	lea    -0x20(%ebp),%eax
 804bd5f:	83 c0 04             	add    $0x4,%eax
 804bd62:	50                   	push   %eax
 804bd63:	68 ec 90 06 08       	push   $0x80690ec
 804bd68:	e8 f3 c6 ff ff       	call   8048460 <strncmp@plt>
 804bd6d:	83 c4 10             	add    $0x10,%esp
 804bd70:	85 c0                	test   %eax,%eax
 804bd72:	75 07                	jne    804bd7b <main+0x3786>
 804bd74:	b8 01 00 00 00       	mov    $0x1,%eax
 804bd79:	eb 05                	jmp    804bd80 <main+0x378b>
 804bd7b:	b8 00 00 00 00       	mov    $0x0,%eax
 804bd80:	89 45 d4             	mov    %eax,-0x2c(%ebp)
 804bd83:	e9 f9 3e 00 00       	jmp    804fc81 <main+0x768c>
 804bd88:	83 ec 04             	sub    $0x4,%esp
 804bd8b:	68 ec 90 06 08       	push   $0x80690ec
 804bd90:	68 d8 4d 06 08       	push   $0x8064dd8
 804bd95:	68 73 fd 04 08       	push   $0x804fd73
 804bd9a:	e8 b1 c6 ff ff       	call   8048450 <__isoc99_scanf@plt>
 804bd9f:	83 c4 10             	add    $0x10,%esp
 804bda2:	83 7d d4 00          	cmpl   $0x0,-0x2c(%ebp)
 804bda6:	74 3e                	je     804bde6 <main+0x37f1>
 804bda8:	83 ec 04             	sub    $0x4,%esp
 804bdab:	6a 04                	push   $0x4
 804bdad:	8d 45 e0             	lea    -0x20(%ebp),%eax
 804bdb0:	50                   	push   %eax
 804bdb1:	68 d8 4d 06 08       	push   $0x8064dd8
 804bdb6:	e8 a5 c6 ff ff       	call   8048460 <strncmp@plt>
 804bdbb:	83 c4 10             	add    $0x10,%esp
 804bdbe:	85 c0                	test   %eax,%eax
 804bdc0:	75 24                	jne    804bde6 <main+0x37f1>
 804bdc2:	83 ec 04             	sub    $0x4,%esp
 804bdc5:	6a 04                	push   $0x4
 804bdc7:	8d 45 e0             	lea    -0x20(%ebp),%eax
 804bdca:	83 c0 04             	add    $0x4,%eax
 804bdcd:	50                   	push   %eax
 804bdce:	68 ec 90 06 08       	push   $0x80690ec
 804bdd3:	e8 88 c6 ff ff       	call   8048460 <strncmp@plt>
 804bdd8:	83 c4 10             	add    $0x10,%esp
 804bddb:	85 c0                	test   %eax,%eax
 804bddd:	75 07                	jne    804bde6 <main+0x37f1>
 804bddf:	b8 01 00 00 00       	mov    $0x1,%eax
 804bde4:	eb 05                	jmp    804bdeb <main+0x37f6>
 804bde6:	b8 00 00 00 00       	mov    $0x0,%eax
 804bdeb:	89 45 d4             	mov    %eax,-0x2c(%ebp)
 804bdee:	e9 8e 3e 00 00       	jmp    804fc81 <main+0x768c>
 804bdf3:	81 7d dc ef be ad de 	cmpl   $0xdeadbeef,-0x24(%ebp)
 804bdfa:	0f 84 cb 01 00 00    	je     804bfcb <main+0x39d6>
 804be00:	81 7d dc ef be ad de 	cmpl   $0xdeadbeef,-0x24(%ebp)
 804be07:	0f 84 df 00 00 00    	je     804beec <main+0x38f7>
 804be0d:	81 7d dc ef be ad de 	cmpl   $0xdeadbeef,-0x24(%ebp)
 804be14:	74 6b                	je     804be81 <main+0x388c>
 804be16:	83 ec 04             	sub    $0x4,%esp
 804be19:	68 ec 90 06 08       	push   $0x80690ec
 804be1e:	68 d8 4d 06 08       	push   $0x8064dd8
 804be23:	68 73 fd 04 08       	push   $0x804fd73
 804be28:	e8 23 c6 ff ff       	call   8048450 <__isoc99_scanf@plt>
 804be2d:	83 c4 10             	add    $0x10,%esp
 804be30:	83 7d d4 00          	cmpl   $0x0,-0x2c(%ebp)
 804be34:	74 3e                	je     804be74 <main+0x387f>
 804be36:	83 ec 04             	sub    $0x4,%esp
 804be39:	6a 04                	push   $0x4
 804be3b:	8d 45 e0             	lea    -0x20(%ebp),%eax
 804be3e:	50                   	push   %eax
 804be3f:	68 d8 4d 06 08       	push   $0x8064dd8
 804be44:	e8 17 c6 ff ff       	call   8048460 <strncmp@plt>
 804be49:	83 c4 10             	add    $0x10,%esp
 804be4c:	85 c0                	test   %eax,%eax
 804be4e:	75 24                	jne    804be74 <main+0x387f>
 804be50:	83 ec 04             	sub    $0x4,%esp
 804be53:	6a 04                	push   $0x4
 804be55:	8d 45 e0             	lea    -0x20(%ebp),%eax
 804be58:	83 c0 04             	add    $0x4,%eax
 804be5b:	50                   	push   %eax
 804be5c:	68 ec 90 06 08       	push   $0x80690ec
 804be61:	e8 fa c5 ff ff       	call   8048460 <strncmp@plt>
 804be66:	83 c4 10             	add    $0x10,%esp
 804be69:	85 c0                	test   %eax,%eax
 804be6b:	75 07                	jne    804be74 <main+0x387f>
 804be6d:	b8 01 00 00 00       	mov    $0x1,%eax
 804be72:	eb 05                	jmp    804be79 <main+0x3884>
 804be74:	b8 00 00 00 00       	mov    $0x0,%eax
 804be79:	89 45 d4             	mov    %eax,-0x2c(%ebp)
 804be7c:	e9 00 3e 00 00       	jmp    804fc81 <main+0x768c>
 804be81:	83 ec 04             	sub    $0x4,%esp
 804be84:	68 ec 90 06 08       	push   $0x80690ec
 804be89:	68 d8 4d 06 08       	push   $0x8064dd8
 804be8e:	68 73 fd 04 08       	push   $0x804fd73
 804be93:	e8 b8 c5 ff ff       	call   8048450 <__isoc99_scanf@plt>
 804be98:	83 c4 10             	add    $0x10,%esp
 804be9b:	83 7d d4 00          	cmpl   $0x0,-0x2c(%ebp)
 804be9f:	74 3e                	je     804bedf <main+0x38ea>
 804bea1:	83 ec 04             	sub    $0x4,%esp
 804bea4:	6a 04                	push   $0x4
 804bea6:	8d 45 e0             	lea    -0x20(%ebp),%eax
 804bea9:	50                   	push   %eax
 804beaa:	68 d8 4d 06 08       	push   $0x8064dd8
 804beaf:	e8 ac c5 ff ff       	call   8048460 <strncmp@plt>
 804beb4:	83 c4 10             	add    $0x10,%esp
 804beb7:	85 c0                	test   %eax,%eax
 804beb9:	75 24                	jne    804bedf <main+0x38ea>
 804bebb:	83 ec 04             	sub    $0x4,%esp
 804bebe:	6a 04                	push   $0x4
 804bec0:	8d 45 e0             	lea    -0x20(%ebp),%eax
 804bec3:	83 c0 04             	add    $0x4,%eax
 804bec6:	50                   	push   %eax
 804bec7:	68 ec 90 06 08       	push   $0x80690ec
 804becc:	e8 8f c5 ff ff       	call   8048460 <strncmp@plt>
 804bed1:	83 c4 10             	add    $0x10,%esp
 804bed4:	85 c0                	test   %eax,%eax
 804bed6:	75 07                	jne    804bedf <main+0x38ea>
 804bed8:	b8 01 00 00 00       	mov    $0x1,%eax
 804bedd:	eb 05                	jmp    804bee4 <main+0x38ef>
 804bedf:	b8 00 00 00 00       	mov    $0x0,%eax
 804bee4:	89 45 d4             	mov    %eax,-0x2c(%ebp)
 804bee7:	e9 95 3d 00 00       	jmp    804fc81 <main+0x768c>
 804beec:	81 7d dc ef be ad de 	cmpl   $0xdeadbeef,-0x24(%ebp)
 804bef3:	74 6b                	je     804bf60 <main+0x396b>
 804bef5:	83 ec 04             	sub    $0x4,%esp
 804bef8:	68 ec 90 06 08       	push   $0x80690ec
 804befd:	68 d8 4d 06 08       	push   $0x8064dd8
 804bf02:	68 73 fd 04 08       	push   $0x804fd73
 804bf07:	e8 44 c5 ff ff       	call   8048450 <__isoc99_scanf@plt>
 804bf0c:	83 c4 10             	add    $0x10,%esp
 804bf0f:	83 7d d4 00          	cmpl   $0x0,-0x2c(%ebp)
 804bf13:	74 3e                	je     804bf53 <main+0x395e>
 804bf15:	83 ec 04             	sub    $0x4,%esp
 804bf18:	6a 04                	push   $0x4
 804bf1a:	8d 45 e0             	lea    -0x20(%ebp),%eax
 804bf1d:	50                   	push   %eax
 804bf1e:	68 d8 4d 06 08       	push   $0x8064dd8
 804bf23:	e8 38 c5 ff ff       	call   8048460 <strncmp@plt>
 804bf28:	83 c4 10             	add    $0x10,%esp
 804bf2b:	85 c0                	test   %eax,%eax
 804bf2d:	75 24                	jne    804bf53 <main+0x395e>
 804bf2f:	83 ec 04             	sub    $0x4,%esp
 804bf32:	6a 04                	push   $0x4
 804bf34:	8d 45 e0             	lea    -0x20(%ebp),%eax
 804bf37:	83 c0 04             	add    $0x4,%eax
 804bf3a:	50                   	push   %eax
 804bf3b:	68 ec 90 06 08       	push   $0x80690ec
 804bf40:	e8 1b c5 ff ff       	call   8048460 <strncmp@plt>
 804bf45:	83 c4 10             	add    $0x10,%esp
 804bf48:	85 c0                	test   %eax,%eax
 804bf4a:	75 07                	jne    804bf53 <main+0x395e>
 804bf4c:	b8 01 00 00 00       	mov    $0x1,%eax
 804bf51:	eb 05                	jmp    804bf58 <main+0x3963>
 804bf53:	b8 00 00 00 00       	mov    $0x0,%eax
 804bf58:	89 45 d4             	mov    %eax,-0x2c(%ebp)
 804bf5b:	e9 21 3d 00 00       	jmp    804fc81 <main+0x768c>
 804bf60:	83 ec 04             	sub    $0x4,%esp
 804bf63:	68 ec 90 06 08       	push   $0x80690ec
 804bf68:	68 d8 4d 06 08       	push   $0x8064dd8
 804bf6d:	68 73 fd 04 08       	push   $0x804fd73
 804bf72:	e8 d9 c4 ff ff       	call   8048450 <__isoc99_scanf@plt>
 804bf77:	83 c4 10             	add    $0x10,%esp
 804bf7a:	83 7d d4 00          	cmpl   $0x0,-0x2c(%ebp)
 804bf7e:	74 3e                	je     804bfbe <main+0x39c9>
 804bf80:	83 ec 04             	sub    $0x4,%esp
 804bf83:	6a 04                	push   $0x4
 804bf85:	8d 45 e0             	lea    -0x20(%ebp),%eax
 804bf88:	50                   	push   %eax
 804bf89:	68 d8 4d 06 08       	push   $0x8064dd8
 804bf8e:	e8 cd c4 ff ff       	call   8048460 <strncmp@plt>
 804bf93:	83 c4 10             	add    $0x10,%esp
 804bf96:	85 c0                	test   %eax,%eax
 804bf98:	75 24                	jne    804bfbe <main+0x39c9>
 804bf9a:	83 ec 04             	sub    $0x4,%esp
 804bf9d:	6a 04                	push   $0x4
 804bf9f:	8d 45 e0             	lea    -0x20(%ebp),%eax
 804bfa2:	83 c0 04             	add    $0x4,%eax
 804bfa5:	50                   	push   %eax
 804bfa6:	68 ec 90 06 08       	push   $0x80690ec
 804bfab:	e8 b0 c4 ff ff       	call   8048460 <strncmp@plt>
 804bfb0:	83 c4 10             	add    $0x10,%esp
 804bfb3:	85 c0                	test   %eax,%eax
 804bfb5:	75 07                	jne    804bfbe <main+0x39c9>
 804bfb7:	b8 01 00 00 00       	mov    $0x1,%eax
 804bfbc:	eb 05                	jmp    804bfc3 <main+0x39ce>
 804bfbe:	b8 00 00 00 00       	mov    $0x0,%eax
 804bfc3:	89 45 d4             	mov    %eax,-0x2c(%ebp)
 804bfc6:	e9 b6 3c 00 00       	jmp    804fc81 <main+0x768c>
 804bfcb:	81 7d dc ef be ad de 	cmpl   $0xdeadbeef,-0x24(%ebp)
 804bfd2:	0f 85 df 00 00 00    	jne    804c0b7 <main+0x3ac2>
 804bfd8:	81 7d dc ef be ad de 	cmpl   $0xdeadbeef,-0x24(%ebp)
 804bfdf:	74 6b                	je     804c04c <main+0x3a57>
 804bfe1:	83 ec 04             	sub    $0x4,%esp
 804bfe4:	68 ec 90 06 08       	push   $0x80690ec
 804bfe9:	68 d8 4d 06 08       	push   $0x8064dd8
 804bfee:	68 73 fd 04 08       	push   $0x804fd73
 804bff3:	e8 58 c4 ff ff       	call   8048450 <__isoc99_scanf@plt>
 804bff8:	83 c4 10             	add    $0x10,%esp
 804bffb:	83 7d d4 00          	cmpl   $0x0,-0x2c(%ebp)
 804bfff:	74 3e                	je     804c03f <main+0x3a4a>
 804c001:	83 ec 04             	sub    $0x4,%esp
 804c004:	6a 04                	push   $0x4
 804c006:	8d 45 e0             	lea    -0x20(%ebp),%eax
 804c009:	50                   	push   %eax
 804c00a:	68 d8 4d 06 08       	push   $0x8064dd8
 804c00f:	e8 4c c4 ff ff       	call   8048460 <strncmp@plt>
 804c014:	83 c4 10             	add    $0x10,%esp
 804c017:	85 c0                	test   %eax,%eax
 804c019:	75 24                	jne    804c03f <main+0x3a4a>
 804c01b:	83 ec 04             	sub    $0x4,%esp
 804c01e:	6a 04                	push   $0x4
 804c020:	8d 45 e0             	lea    -0x20(%ebp),%eax
 804c023:	83 c0 04             	add    $0x4,%eax
 804c026:	50                   	push   %eax
 804c027:	68 ec 90 06 08       	push   $0x80690ec
 804c02c:	e8 2f c4 ff ff       	call   8048460 <strncmp@plt>
 804c031:	83 c4 10             	add    $0x10,%esp
 804c034:	85 c0                	test   %eax,%eax
 804c036:	75 07                	jne    804c03f <main+0x3a4a>
 804c038:	b8 01 00 00 00       	mov    $0x1,%eax
 804c03d:	eb 05                	jmp    804c044 <main+0x3a4f>
 804c03f:	b8 00 00 00 00       	mov    $0x0,%eax
 804c044:	89 45 d4             	mov    %eax,-0x2c(%ebp)
 804c047:	e9 35 3c 00 00       	jmp    804fc81 <main+0x768c>
 804c04c:	83 ec 04             	sub    $0x4,%esp
 804c04f:	68 ec 90 06 08       	push   $0x80690ec
 804c054:	68 d8 4d 06 08       	push   $0x8064dd8
 804c059:	68 73 fd 04 08       	push   $0x804fd73
 804c05e:	e8 ed c3 ff ff       	call   8048450 <__isoc99_scanf@plt>
 804c063:	83 c4 10             	add    $0x10,%esp
 804c066:	83 7d d4 00          	cmpl   $0x0,-0x2c(%ebp)
 804c06a:	74 3e                	je     804c0aa <main+0x3ab5>
 804c06c:	83 ec 04             	sub    $0x4,%esp
 804c06f:	6a 04                	push   $0x4
 804c071:	8d 45 e0             	lea    -0x20(%ebp),%eax
 804c074:	50                   	push   %eax
 804c075:	68 d8 4d 06 08       	push   $0x8064dd8
 804c07a:	e8 e1 c3 ff ff       	call   8048460 <strncmp@plt>
 804c07f:	83 c4 10             	add    $0x10,%esp
 804c082:	85 c0                	test   %eax,%eax
 804c084:	75 24                	jne    804c0aa <main+0x3ab5>
 804c086:	83 ec 04             	sub    $0x4,%esp
 804c089:	6a 04                	push   $0x4
 804c08b:	8d 45 e0             	lea    -0x20(%ebp),%eax
 804c08e:	83 c0 04             	add    $0x4,%eax
 804c091:	50                   	push   %eax
 804c092:	68 ec 90 06 08       	push   $0x80690ec
 804c097:	e8 c4 c3 ff ff       	call   8048460 <strncmp@plt>
 804c09c:	83 c4 10             	add    $0x10,%esp
 804c09f:	85 c0                	test   %eax,%eax
 804c0a1:	75 07                	jne    804c0aa <main+0x3ab5>
 804c0a3:	b8 01 00 00 00       	mov    $0x1,%eax
 804c0a8:	eb 05                	jmp    804c0af <main+0x3aba>
 804c0aa:	b8 00 00 00 00       	mov    $0x0,%eax
 804c0af:	89 45 d4             	mov    %eax,-0x2c(%ebp)
 804c0b2:	e9 ca 3b 00 00       	jmp    804fc81 <main+0x768c>
 804c0b7:	81 7d dc ef be ad de 	cmpl   $0xdeadbeef,-0x24(%ebp)
 804c0be:	75 6b                	jne    804c12b <main+0x3b36>
 804c0c0:	83 ec 04             	sub    $0x4,%esp
 804c0c3:	68 ec 90 06 08       	push   $0x80690ec
 804c0c8:	68 d8 4d 06 08       	push   $0x8064dd8
 804c0cd:	68 73 fd 04 08       	push   $0x804fd73
 804c0d2:	e8 79 c3 ff ff       	call   8048450 <__isoc99_scanf@plt>
 804c0d7:	83 c4 10             	add    $0x10,%esp
 804c0da:	83 7d d4 00          	cmpl   $0x0,-0x2c(%ebp)
 804c0de:	74 3e                	je     804c11e <main+0x3b29>
 804c0e0:	83 ec 04             	sub    $0x4,%esp
 804c0e3:	6a 04                	push   $0x4
 804c0e5:	8d 45 e0             	lea    -0x20(%ebp),%eax
 804c0e8:	50                   	push   %eax
 804c0e9:	68 d8 4d 06 08       	push   $0x8064dd8
 804c0ee:	e8 6d c3 ff ff       	call   8048460 <strncmp@plt>
 804c0f3:	83 c4 10             	add    $0x10,%esp
 804c0f6:	85 c0                	test   %eax,%eax
 804c0f8:	75 24                	jne    804c11e <main+0x3b29>
 804c0fa:	83 ec 04             	sub    $0x4,%esp
 804c0fd:	6a 04                	push   $0x4
 804c0ff:	8d 45 e0             	lea    -0x20(%ebp),%eax
 804c102:	83 c0 04             	add    $0x4,%eax
 804c105:	50                   	push   %eax
 804c106:	68 ec 90 06 08       	push   $0x80690ec
 804c10b:	e8 50 c3 ff ff       	call   8048460 <strncmp@plt>
 804c110:	83 c4 10             	add    $0x10,%esp
 804c113:	85 c0                	test   %eax,%eax
 804c115:	75 07                	jne    804c11e <main+0x3b29>
 804c117:	b8 01 00 00 00       	mov    $0x1,%eax
 804c11c:	eb 05                	jmp    804c123 <main+0x3b2e>
 804c11e:	b8 00 00 00 00       	mov    $0x0,%eax
 804c123:	89 45 d4             	mov    %eax,-0x2c(%ebp)
 804c126:	e9 56 3b 00 00       	jmp    804fc81 <main+0x768c>
 804c12b:	83 ec 04             	sub    $0x4,%esp
 804c12e:	68 ec 90 06 08       	push   $0x80690ec
 804c133:	68 d8 4d 06 08       	push   $0x8064dd8
 804c138:	68 73 fd 04 08       	push   $0x804fd73
 804c13d:	e8 0e c3 ff ff       	call   8048450 <__isoc99_scanf@plt>
 804c142:	83 c4 10             	add    $0x10,%esp
 804c145:	83 7d d4 00          	cmpl   $0x0,-0x2c(%ebp)
 804c149:	74 3e                	je     804c189 <main+0x3b94>
 804c14b:	83 ec 04             	sub    $0x4,%esp
 804c14e:	6a 04                	push   $0x4
 804c150:	8d 45 e0             	lea    -0x20(%ebp),%eax
 804c153:	50                   	push   %eax
 804c154:	68 d8 4d 06 08       	push   $0x8064dd8
 804c159:	e8 02 c3 ff ff       	call   8048460 <strncmp@plt>
 804c15e:	83 c4 10             	add    $0x10,%esp
 804c161:	85 c0                	test   %eax,%eax
 804c163:	75 24                	jne    804c189 <main+0x3b94>
 804c165:	83 ec 04             	sub    $0x4,%esp
 804c168:	6a 04                	push   $0x4
 804c16a:	8d 45 e0             	lea    -0x20(%ebp),%eax
 804c16d:	83 c0 04             	add    $0x4,%eax
 804c170:	50                   	push   %eax
 804c171:	68 ec 90 06 08       	push   $0x80690ec
 804c176:	e8 e5 c2 ff ff       	call   8048460 <strncmp@plt>
 804c17b:	83 c4 10             	add    $0x10,%esp
 804c17e:	85 c0                	test   %eax,%eax
 804c180:	75 07                	jne    804c189 <main+0x3b94>
 804c182:	b8 01 00 00 00       	mov    $0x1,%eax
 804c187:	eb 05                	jmp    804c18e <main+0x3b99>
 804c189:	b8 00 00 00 00       	mov    $0x0,%eax
 804c18e:	89 45 d4             	mov    %eax,-0x2c(%ebp)
 804c191:	e9 eb 3a 00 00       	jmp    804fc81 <main+0x768c>
 804c196:	81 7d dc ef be ad de 	cmpl   $0xdeadbeef,-0x24(%ebp)
 804c19d:	0f 85 73 1d 00 00    	jne    804df16 <main+0x5921>
 804c1a3:	81 7d dc ef be ad de 	cmpl   $0xdeadbeef,-0x24(%ebp)
 804c1aa:	0f 84 b3 0e 00 00    	je     804d063 <main+0x4a6e>
 804c1b0:	81 7d dc ef be ad de 	cmpl   $0xdeadbeef,-0x24(%ebp)
 804c1b7:	0f 84 53 07 00 00    	je     804c910 <main+0x431b>
 804c1bd:	81 7d dc ef be ad de 	cmpl   $0xdeadbeef,-0x24(%ebp)
 804c1c4:	0f 85 a3 03 00 00    	jne    804c56d <main+0x3f78>
 804c1ca:	81 7d dc ef be ad de 	cmpl   $0xdeadbeef,-0x24(%ebp)
 804c1d1:	0f 85 cb 01 00 00    	jne    804c3a2 <main+0x3dad>
 804c1d7:	81 7d dc ef be ad de 	cmpl   $0xdeadbeef,-0x24(%ebp)
 804c1de:	0f 84 df 00 00 00    	je     804c2c3 <main+0x3cce>
 804c1e4:	81 7d dc ef be ad de 	cmpl   $0xdeadbeef,-0x24(%ebp)
 804c1eb:	74 6b                	je     804c258 <main+0x3c63>
 804c1ed:	83 ec 04             	sub    $0x4,%esp
 804c1f0:	68 ec 90 06 08       	push   $0x80690ec
 804c1f5:	68 d8 4d 06 08       	push   $0x8064dd8
 804c1fa:	68 73 fd 04 08       	push   $0x804fd73
 804c1ff:	e8 4c c2 ff ff       	call   8048450 <__isoc99_scanf@plt>
 804c204:	83 c4 10             	add    $0x10,%esp
 804c207:	83 7d d4 00          	cmpl   $0x0,-0x2c(%ebp)
 804c20b:	74 3e                	je     804c24b <main+0x3c56>
 804c20d:	83 ec 04             	sub    $0x4,%esp
 804c210:	6a 04                	push   $0x4
 804c212:	8d 45 e0             	lea    -0x20(%ebp),%eax
 804c215:	50                   	push   %eax
 804c216:	68 d8 4d 06 08       	push   $0x8064dd8
 804c21b:	e8 40 c2 ff ff       	call   8048460 <strncmp@plt>
 804c220:	83 c4 10             	add    $0x10,%esp
 804c223:	85 c0                	test   %eax,%eax
 804c225:	75 24                	jne    804c24b <main+0x3c56>
 804c227:	83 ec 04             	sub    $0x4,%esp
 804c22a:	6a 04                	push   $0x4
 804c22c:	8d 45 e0             	lea    -0x20(%ebp),%eax
 804c22f:	83 c0 04             	add    $0x4,%eax
 804c232:	50                   	push   %eax
 804c233:	68 ec 90 06 08       	push   $0x80690ec
 804c238:	e8 23 c2 ff ff       	call   8048460 <strncmp@plt>
 804c23d:	83 c4 10             	add    $0x10,%esp
 804c240:	85 c0                	test   %eax,%eax
 804c242:	75 07                	jne    804c24b <main+0x3c56>
 804c244:	b8 01 00 00 00       	mov    $0x1,%eax
 804c249:	eb 05                	jmp    804c250 <main+0x3c5b>
 804c24b:	b8 00 00 00 00       	mov    $0x0,%eax
 804c250:	89 45 d4             	mov    %eax,-0x2c(%ebp)
 804c253:	e9 29 3a 00 00       	jmp    804fc81 <main+0x768c>
 804c258:	83 ec 04             	sub    $0x4,%esp
 804c25b:	68 ec 90 06 08       	push   $0x80690ec
 804c260:	68 d8 4d 06 08       	push   $0x8064dd8
 804c265:	68 73 fd 04 08       	push   $0x804fd73
 804c26a:	e8 e1 c1 ff ff       	call   8048450 <__isoc99_scanf@plt>
 804c26f:	83 c4 10             	add    $0x10,%esp
 804c272:	83 7d d4 00          	cmpl   $0x0,-0x2c(%ebp)
 804c276:	74 3e                	je     804c2b6 <main+0x3cc1>
 804c278:	83 ec 04             	sub    $0x4,%esp
 804c27b:	6a 04                	push   $0x4
 804c27d:	8d 45 e0             	lea    -0x20(%ebp),%eax
 804c280:	50                   	push   %eax
 804c281:	68 d8 4d 06 08       	push   $0x8064dd8
 804c286:	e8 d5 c1 ff ff       	call   8048460 <strncmp@plt>
 804c28b:	83 c4 10             	add    $0x10,%esp
 804c28e:	85 c0                	test   %eax,%eax
 804c290:	75 24                	jne    804c2b6 <main+0x3cc1>
 804c292:	83 ec 04             	sub    $0x4,%esp
 804c295:	6a 04                	push   $0x4
 804c297:	8d 45 e0             	lea    -0x20(%ebp),%eax
 804c29a:	83 c0 04             	add    $0x4,%eax
 804c29d:	50                   	push   %eax
 804c29e:	68 ec 90 06 08       	push   $0x80690ec
 804c2a3:	e8 b8 c1 ff ff       	call   8048460 <strncmp@plt>
 804c2a8:	83 c4 10             	add    $0x10,%esp
 804c2ab:	85 c0                	test   %eax,%eax
 804c2ad:	75 07                	jne    804c2b6 <main+0x3cc1>
 804c2af:	b8 01 00 00 00       	mov    $0x1,%eax
 804c2b4:	eb 05                	jmp    804c2bb <main+0x3cc6>
 804c2b6:	b8 00 00 00 00       	mov    $0x0,%eax
 804c2bb:	89 45 d4             	mov    %eax,-0x2c(%ebp)
 804c2be:	e9 be 39 00 00       	jmp    804fc81 <main+0x768c>
 804c2c3:	81 7d dc ef be ad de 	cmpl   $0xdeadbeef,-0x24(%ebp)
 804c2ca:	75 6b                	jne    804c337 <main+0x3d42>
 804c2cc:	83 ec 04             	sub    $0x4,%esp
 804c2cf:	68 ec 90 06 08       	push   $0x80690ec
 804c2d4:	68 d8 4d 06 08       	push   $0x8064dd8
 804c2d9:	68 73 fd 04 08       	push   $0x804fd73
 804c2de:	e8 6d c1 ff ff       	call   8048450 <__isoc99_scanf@plt>
 804c2e3:	83 c4 10             	add    $0x10,%esp
 804c2e6:	83 7d d4 00          	cmpl   $0x0,-0x2c(%ebp)
 804c2ea:	74 3e                	je     804c32a <main+0x3d35>
 804c2ec:	83 ec 04             	sub    $0x4,%esp
 804c2ef:	6a 04                	push   $0x4
 804c2f1:	8d 45 e0             	lea    -0x20(%ebp),%eax
 804c2f4:	50                   	push   %eax
 804c2f5:	68 d8 4d 06 08       	push   $0x8064dd8
 804c2fa:	e8 61 c1 ff ff       	call   8048460 <strncmp@plt>
 804c2ff:	83 c4 10             	add    $0x10,%esp
 804c302:	85 c0                	test   %eax,%eax
 804c304:	75 24                	jne    804c32a <main+0x3d35>
 804c306:	83 ec 04             	sub    $0x4,%esp
 804c309:	6a 04                	push   $0x4
 804c30b:	8d 45 e0             	lea    -0x20(%ebp),%eax
 804c30e:	83 c0 04             	add    $0x4,%eax
 804c311:	50                   	push   %eax
 804c312:	68 ec 90 06 08       	push   $0x80690ec
 804c317:	e8 44 c1 ff ff       	call   8048460 <strncmp@plt>
 804c31c:	83 c4 10             	add    $0x10,%esp
 804c31f:	85 c0                	test   %eax,%eax
 804c321:	75 07                	jne    804c32a <main+0x3d35>
 804c323:	b8 01 00 00 00       	mov    $0x1,%eax
 804c328:	eb 05                	jmp    804c32f <main+0x3d3a>
 804c32a:	b8 00 00 00 00       	mov    $0x0,%eax
 804c32f:	89 45 d4             	mov    %eax,-0x2c(%ebp)
