
12_angr_veritesting:     file format elf32-i386


Disassembly of section .init:

08048394 <_init>:
 8048394:	53                   	push   %ebx
 8048395:	83 ec 08             	sub    $0x8,%esp
 8048398:	e8 e3 00 00 00       	call   8048480 <__x86.get_pc_thunk.bx>
 804839d:	81 c3 63 1c 00 00    	add    $0x1c63,%ebx
 80483a3:	8b 83 fc ff ff ff    	mov    -0x4(%ebx),%eax
 80483a9:	85 c0                	test   %eax,%eax
 80483ab:	74 05                	je     80483b2 <_init+0x1e>
 80483ad:	e8 8e 00 00 00       	call   8048440 <__gmon_start__@plt>
 80483b2:	83 c4 08             	add    $0x8,%esp
 80483b5:	5b                   	pop    %ebx
 80483b6:	c3                   	ret    

Disassembly of section .plt:

080483c0 <.plt>:
 80483c0:	ff 35 04 a0 04 08    	pushl  0x804a004
 80483c6:	ff 25 08 a0 04 08    	jmp    *0x804a008
 80483cc:	00 00                	add    %al,(%eax)
	...

080483d0 <printf@plt>:
 80483d0:	ff 25 0c a0 04 08    	jmp    *0x804a00c
 80483d6:	68 00 00 00 00       	push   $0x0
 80483db:	e9 e0 ff ff ff       	jmp    80483c0 <.plt>

080483e0 <__stack_chk_fail@plt>:
 80483e0:	ff 25 10 a0 04 08    	jmp    *0x804a010
 80483e6:	68 08 00 00 00       	push   $0x8
 80483eb:	e9 d0 ff ff ff       	jmp    80483c0 <.plt>

080483f0 <puts@plt>:
 80483f0:	ff 25 14 a0 04 08    	jmp    *0x804a014
 80483f6:	68 10 00 00 00       	push   $0x10
 80483fb:	e9 c0 ff ff ff       	jmp    80483c0 <.plt>

08048400 <exit@plt>:
 8048400:	ff 25 18 a0 04 08    	jmp    *0x804a018
 8048406:	68 18 00 00 00       	push   $0x18
 804840b:	e9 b0 ff ff ff       	jmp    80483c0 <.plt>

08048410 <__libc_start_main@plt>:
 8048410:	ff 25 1c a0 04 08    	jmp    *0x804a01c
 8048416:	68 20 00 00 00       	push   $0x20
 804841b:	e9 a0 ff ff ff       	jmp    80483c0 <.plt>

08048420 <memset@plt>:
 8048420:	ff 25 20 a0 04 08    	jmp    *0x804a020
 8048426:	68 28 00 00 00       	push   $0x28
 804842b:	e9 90 ff ff ff       	jmp    80483c0 <.plt>

08048430 <__isoc99_scanf@plt>:
 8048430:	ff 25 24 a0 04 08    	jmp    *0x804a024
 8048436:	68 30 00 00 00       	push   $0x30
 804843b:	e9 80 ff ff ff       	jmp    80483c0 <.plt>

Disassembly of section .plt.got:

08048440 <__gmon_start__@plt>:
 8048440:	ff 25 fc 9f 04 08    	jmp    *0x8049ffc
 8048446:	66 90                	xchg   %ax,%ax

Disassembly of section .text:

08048450 <_start>:
 8048450:	31 ed                	xor    %ebp,%ebp
 8048452:	5e                   	pop    %esi
 8048453:	89 e1                	mov    %esp,%ecx
 8048455:	83 e4 f0             	and    $0xfffffff0,%esp
 8048458:	50                   	push   %eax
 8048459:	54                   	push   %esp
 804845a:	52                   	push   %edx
 804845b:	68 20 87 04 08       	push   $0x8048720
 8048460:	68 c0 86 04 08       	push   $0x80486c0
 8048465:	51                   	push   %ecx
 8048466:	56                   	push   %esi
 8048467:	68 c4 85 04 08       	push   $0x80485c4
 804846c:	e8 9f ff ff ff       	call   8048410 <__libc_start_main@plt>
 8048471:	f4                   	hlt    
 8048472:	66 90                	xchg   %ax,%ax
 8048474:	66 90                	xchg   %ax,%ax
 8048476:	66 90                	xchg   %ax,%ax
 8048478:	66 90                	xchg   %ax,%ax
 804847a:	66 90                	xchg   %ax,%ax
 804847c:	66 90                	xchg   %ax,%ax
 804847e:	66 90                	xchg   %ax,%ax

08048480 <__x86.get_pc_thunk.bx>:
 8048480:	8b 1c 24             	mov    (%esp),%ebx
 8048483:	c3                   	ret    
 8048484:	66 90                	xchg   %ax,%ax
 8048486:	66 90                	xchg   %ax,%ax
 8048488:	66 90                	xchg   %ax,%ax
 804848a:	66 90                	xchg   %ax,%ax
 804848c:	66 90                	xchg   %ax,%ax
 804848e:	66 90                	xchg   %ax,%ax

08048490 <deregister_tm_clones>:
 8048490:	b8 43 a0 04 08       	mov    $0x804a043,%eax
 8048495:	2d 40 a0 04 08       	sub    $0x804a040,%eax
 804849a:	83 f8 06             	cmp    $0x6,%eax
 804849d:	76 1a                	jbe    80484b9 <deregister_tm_clones+0x29>
 804849f:	b8 00 00 00 00       	mov    $0x0,%eax
 80484a4:	85 c0                	test   %eax,%eax
 80484a6:	74 11                	je     80484b9 <deregister_tm_clones+0x29>
 80484a8:	55                   	push   %ebp
 80484a9:	89 e5                	mov    %esp,%ebp
 80484ab:	83 ec 14             	sub    $0x14,%esp
 80484ae:	68 40 a0 04 08       	push   $0x804a040
 80484b3:	ff d0                	call   *%eax
 80484b5:	83 c4 10             	add    $0x10,%esp
 80484b8:	c9                   	leave  
 80484b9:	f3 c3                	repz ret 
 80484bb:	90                   	nop
 80484bc:	8d 74 26 00          	lea    0x0(%esi,%eiz,1),%esi

080484c0 <register_tm_clones>:
 80484c0:	b8 40 a0 04 08       	mov    $0x804a040,%eax
 80484c5:	2d 40 a0 04 08       	sub    $0x804a040,%eax
 80484ca:	c1 f8 02             	sar    $0x2,%eax
 80484cd:	89 c2                	mov    %eax,%edx
 80484cf:	c1 ea 1f             	shr    $0x1f,%edx
 80484d2:	01 d0                	add    %edx,%eax
 80484d4:	d1 f8                	sar    %eax
 80484d6:	74 1b                	je     80484f3 <register_tm_clones+0x33>
 80484d8:	ba 00 00 00 00       	mov    $0x0,%edx
 80484dd:	85 d2                	test   %edx,%edx
 80484df:	74 12                	je     80484f3 <register_tm_clones+0x33>
 80484e1:	55                   	push   %ebp
 80484e2:	89 e5                	mov    %esp,%ebp
 80484e4:	83 ec 10             	sub    $0x10,%esp
 80484e7:	50                   	push   %eax
 80484e8:	68 40 a0 04 08       	push   $0x804a040
 80484ed:	ff d2                	call   *%edx
 80484ef:	83 c4 10             	add    $0x10,%esp
 80484f2:	c9                   	leave  
 80484f3:	f3 c3                	repz ret 
 80484f5:	8d 74 26 00          	lea    0x0(%esi,%eiz,1),%esi
 80484f9:	8d bc 27 00 00 00 00 	lea    0x0(%edi,%eiz,1),%edi

08048500 <__do_global_dtors_aux>:
 8048500:	80 3d 3d a0 04 08 00 	cmpb   $0x0,0x804a03d
 8048507:	75 13                	jne    804851c <__do_global_dtors_aux+0x1c>
 8048509:	55                   	push   %ebp
 804850a:	89 e5                	mov    %esp,%ebp
 804850c:	83 ec 08             	sub    $0x8,%esp
 804850f:	e8 7c ff ff ff       	call   8048490 <deregister_tm_clones>
 8048514:	c6 05 3d a0 04 08 01 	movb   $0x1,0x804a03d
 804851b:	c9                   	leave  
 804851c:	f3 c3                	repz ret 
 804851e:	66 90                	xchg   %ax,%ax

08048520 <frame_dummy>:
 8048520:	b8 10 9f 04 08       	mov    $0x8049f10,%eax
 8048525:	8b 10                	mov    (%eax),%edx
 8048527:	85 d2                	test   %edx,%edx
 8048529:	75 05                	jne    8048530 <frame_dummy+0x10>
 804852b:	eb 93                	jmp    80484c0 <register_tm_clones>
 804852d:	8d 76 00             	lea    0x0(%esi),%esi
 8048530:	ba 00 00 00 00       	mov    $0x0,%edx
 8048535:	85 d2                	test   %edx,%edx
 8048537:	74 f2                	je     804852b <frame_dummy+0xb>
 8048539:	55                   	push   %ebp
 804853a:	89 e5                	mov    %esp,%ebp
 804853c:	83 ec 14             	sub    $0x14,%esp
 804853f:	50                   	push   %eax
 8048540:	ff d2                	call   *%edx
 8048542:	83 c4 10             	add    $0x10,%esp
 8048545:	c9                   	leave  
 8048546:	e9 75 ff ff ff       	jmp    80484c0 <register_tm_clones>

0804854b <print_msg>:
 804854b:	55                   	push   %ebp
 804854c:	89 e5                	mov    %esp,%ebp
 804854e:	83 ec 08             	sub    $0x8,%esp
 8048551:	83 ec 08             	sub    $0x8,%esp
 8048554:	68 30 a0 04 08       	push   $0x804a030
 8048559:	68 40 87 04 08       	push   $0x8048740
 804855e:	e8 6d fe ff ff       	call   80483d0 <printf@plt>
 8048563:	83 c4 10             	add    $0x10,%esp
 8048566:	90                   	nop
 8048567:	c9                   	leave  
 8048568:	c3                   	ret    

08048569 <complex_function>:
 8048569:	55                   	push   %ebp
 804856a:	89 e5                	mov    %esp,%ebp
 804856c:	83 ec 08             	sub    $0x8,%esp
 804856f:	83 7d 08 40          	cmpl   $0x40,0x8(%ebp)
 8048573:	7e 06                	jle    804857b <complex_function+0x12>
 8048575:	83 7d 08 5a          	cmpl   $0x5a,0x8(%ebp)
 8048579:	7e 1a                	jle    8048595 <complex_function+0x2c>
 804857b:	83 ec 0c             	sub    $0xc,%esp
 804857e:	68 43 87 04 08       	push   $0x8048743
 8048583:	e8 68 fe ff ff       	call   80483f0 <puts@plt>
 8048588:	83 c4 10             	add    $0x10,%esp
 804858b:	83 ec 0c             	sub    $0xc,%esp
 804858e:	6a 01                	push   $0x1
 8048590:	e8 6b fe ff ff       	call   8048400 <exit@plt>
 8048595:	8b 45 08             	mov    0x8(%ebp),%eax
 8048598:	8d 50 bf             	lea    -0x41(%eax),%edx
 804859b:	8b 45 0c             	mov    0xc(%ebp),%eax
 804859e:	01 c0                	add    %eax,%eax
 80485a0:	8d 0c 02             	lea    (%edx,%eax,1),%ecx
 80485a3:	ba 4f ec c4 4e       	mov    $0x4ec4ec4f,%edx
 80485a8:	89 c8                	mov    %ecx,%eax
 80485aa:	f7 ea                	imul   %edx
 80485ac:	c1 fa 03             	sar    $0x3,%edx
 80485af:	89 c8                	mov    %ecx,%eax
 80485b1:	c1 f8 1f             	sar    $0x1f,%eax
 80485b4:	29 c2                	sub    %eax,%edx
 80485b6:	89 d0                	mov    %edx,%eax
 80485b8:	6b c0 1a             	imul   $0x1a,%eax,%eax
 80485bb:	29 c1                	sub    %eax,%ecx
 80485bd:	89 c8                	mov    %ecx,%eax
 80485bf:	83 c0 41             	add    $0x41,%eax
 80485c2:	c9                   	leave  
 80485c3:	c3                   	ret    

080485c4 <main>:
 80485c4:	8d 4c 24 04          	lea    0x4(%esp),%ecx
 80485c8:	83 e4 f0             	and    $0xfffffff0,%esp
 80485cb:	ff 71 fc             	pushl  -0x4(%ecx)
 80485ce:	55                   	push   %ebp
 80485cf:	89 e5                	mov    %esp,%ebp
 80485d1:	53                   	push   %ebx
 80485d2:	51                   	push   %ecx
 80485d3:	83 ec 50             	sub    $0x50,%esp
 80485d6:	89 c8                	mov    %ecx,%eax
 80485d8:	8b 40 04             	mov    0x4(%eax),%eax
 80485db:	89 45 b4             	mov    %eax,-0x4c(%ebp)
 80485de:	65 a1 14 00 00 00    	mov    %gs:0x14,%eax
 80485e4:	89 45 f4             	mov    %eax,-0xc(%ebp)
 80485e7:	31 c0                	xor    %eax,%eax
 80485e9:	83 ec 04             	sub    $0x4,%esp
 80485ec:	6a 21                	push   $0x21
 80485ee:	6a 00                	push   $0x0
 80485f0:	8d 45 d3             	lea    -0x2d(%ebp),%eax
 80485f3:	50                   	push   %eax
 80485f4:	e8 27 fe ff ff       	call   8048420 <memset@plt>
 80485f9:	83 c4 10             	add    $0x10,%esp
 80485fc:	83 ec 0c             	sub    $0xc,%esp
 80485ff:	68 4e 87 04 08       	push   $0x804874e
 8048604:	e8 c7 fd ff ff       	call   80483d0 <printf@plt>
 8048609:	83 c4 10             	add    $0x10,%esp
 804860c:	83 ec 08             	sub    $0x8,%esp
 804860f:	8d 45 d3             	lea    -0x2d(%ebp),%eax
 8048612:	50                   	push   %eax
 8048613:	68 63 87 04 08       	push   $0x8048763
 8048618:	e8 13 fe ff ff       	call   8048430 <__isoc99_scanf@plt>
 804861d:	83 c4 10             	add    $0x10,%esp
 8048620:	c7 45 c4 00 00 00 00 	movl   $0x0,-0x3c(%ebp)
 8048627:	c7 45 cc 00 00 00 00 	movl   $0x0,-0x34(%ebp)
 804862e:	c7 45 c8 00 00 00 00 	movl   $0x0,-0x38(%ebp)
 8048635:	eb 2e                	jmp    8048665 <main+0xa1>
 8048637:	8d 55 d3             	lea    -0x2d(%ebp),%edx
 804863a:	8b 45 c8             	mov    -0x38(%ebp),%eax
 804863d:	01 d0                	add    %edx,%eax
 804863f:	0f b6 00             	movzbl (%eax),%eax
 8048642:	0f be d8             	movsbl %al,%ebx
 8048645:	8b 45 c8             	mov    -0x38(%ebp),%eax
 8048648:	83 c0 5d             	add    $0x5d,%eax
 804864b:	83 ec 08             	sub    $0x8,%esp
 804864e:	50                   	push   %eax
 804864f:	6a 4b                	push   $0x4b
 8048651:	e8 13 ff ff ff       	call   8048569 <complex_function>
 8048656:	83 c4 10             	add    $0x10,%esp
 8048659:	39 c3                	cmp    %eax,%ebx
 804865b:	75 04                	jne    8048661 <main+0x9d>
 804865d:	83 45 c4 01          	addl   $0x1,-0x3c(%ebp)
 8048661:	83 45 c8 01          	addl   $0x1,-0x38(%ebp)
 8048665:	83 7d c8 1f          	cmpl   $0x1f,-0x38(%ebp)
 8048669:	7e cc                	jle    8048637 <main+0x73>
 804866b:	83 7d c4 20          	cmpl   $0x20,-0x3c(%ebp)
 804866f:	75 1a                	jne    804868b <main+0xc7>
 8048671:	0f b6 45 f4          	movzbl -0xc(%ebp),%eax
 8048675:	84 c0                	test   %al,%al
 8048677:	75 12                	jne    804868b <main+0xc7>
 8048679:	83 ec 0c             	sub    $0xc,%esp
 804867c:	68 68 87 04 08       	push   $0x8048768
 8048681:	e8 6a fd ff ff       	call   80483f0 <puts@plt>
 8048686:	83 c4 10             	add    $0x10,%esp
 8048689:	eb 10                	jmp    804869b <main+0xd7>
 804868b:	83 ec 0c             	sub    $0xc,%esp
 804868e:	68 43 87 04 08       	push   $0x8048743
 8048693:	e8 58 fd ff ff       	call   80483f0 <puts@plt>
 8048698:	83 c4 10             	add    $0x10,%esp
 804869b:	b8 00 00 00 00       	mov    $0x0,%eax
 80486a0:	8b 4d f4             	mov    -0xc(%ebp),%ecx
 80486a3:	65 33 0d 14 00 00 00 	xor    %gs:0x14,%ecx
 80486aa:	74 05                	je     80486b1 <main+0xed>
 80486ac:	e8 2f fd ff ff       	call   80483e0 <__stack_chk_fail@plt>
 80486b1:	8d 65 f8             	lea    -0x8(%ebp),%esp
 80486b4:	59                   	pop    %ecx
 80486b5:	5b                   	pop    %ebx
 80486b6:	5d                   	pop    %ebp
 80486b7:	8d 61 fc             	lea    -0x4(%ecx),%esp
 80486ba:	c3                   	ret    
 80486bb:	66 90                	xchg   %ax,%ax
 80486bd:	66 90                	xchg   %ax,%ax
 80486bf:	90                   	nop

080486c0 <__libc_csu_init>:
 80486c0:	55                   	push   %ebp
 80486c1:	57                   	push   %edi
 80486c2:	56                   	push   %esi
 80486c3:	53                   	push   %ebx
 80486c4:	e8 b7 fd ff ff       	call   8048480 <__x86.get_pc_thunk.bx>
 80486c9:	81 c3 37 19 00 00    	add    $0x1937,%ebx
 80486cf:	83 ec 0c             	sub    $0xc,%esp
 80486d2:	8b 6c 24 20          	mov    0x20(%esp),%ebp
 80486d6:	8d b3 0c ff ff ff    	lea    -0xf4(%ebx),%esi
 80486dc:	e8 b3 fc ff ff       	call   8048394 <_init>
 80486e1:	8d 83 08 ff ff ff    	lea    -0xf8(%ebx),%eax
 80486e7:	29 c6                	sub    %eax,%esi
 80486e9:	c1 fe 02             	sar    $0x2,%esi
 80486ec:	85 f6                	test   %esi,%esi
 80486ee:	74 25                	je     8048715 <__libc_csu_init+0x55>
 80486f0:	31 ff                	xor    %edi,%edi
 80486f2:	8d b6 00 00 00 00    	lea    0x0(%esi),%esi
 80486f8:	83 ec 04             	sub    $0x4,%esp
 80486fb:	ff 74 24 2c          	pushl  0x2c(%esp)
 80486ff:	ff 74 24 2c          	pushl  0x2c(%esp)
 8048703:	55                   	push   %ebp
 8048704:	ff 94 bb 08 ff ff ff 	call   *-0xf8(%ebx,%edi,4)
 804870b:	83 c7 01             	add    $0x1,%edi
 804870e:	83 c4 10             	add    $0x10,%esp
 8048711:	39 f7                	cmp    %esi,%edi
 8048713:	75 e3                	jne    80486f8 <__libc_csu_init+0x38>
 8048715:	83 c4 0c             	add    $0xc,%esp
 8048718:	5b                   	pop    %ebx
 8048719:	5e                   	pop    %esi
 804871a:	5f                   	pop    %edi
 804871b:	5d                   	pop    %ebp
 804871c:	c3                   	ret    
 804871d:	8d 76 00             	lea    0x0(%esi),%esi

08048720 <__libc_csu_fini>:
 8048720:	f3 c3                	repz ret 

Disassembly of section .fini:

08048724 <_fini>:
 8048724:	53                   	push   %ebx
 8048725:	83 ec 08             	sub    $0x8,%esp
 8048728:	e8 53 fd ff ff       	call   8048480 <__x86.get_pc_thunk.bx>
 804872d:	81 c3 d3 18 00 00    	add    $0x18d3,%ebx
 8048733:	83 c4 08             	add    $0x8,%esp
 8048736:	5b                   	pop    %ebx
 8048737:	c3                   	ret    
