
14_angr_shared_library:     file format elf32-i386


Disassembly of section .init:

080484cc <_init>:
 80484cc:	53                   	push   %ebx
 80484cd:	83 ec 08             	sub    $0x8,%esp
 80484d0:	e8 db 00 00 00       	call   80485b0 <__x86.get_pc_thunk.bx>
 80484d5:	81 c3 2b 1b 00 00    	add    $0x1b2b,%ebx
 80484db:	8b 83 fc ff ff ff    	mov    -0x4(%ebx),%eax
 80484e1:	85 c0                	test   %eax,%eax
 80484e3:	74 05                	je     80484ea <_init+0x1e>
 80484e5:	e8 86 00 00 00       	call   8048570 <__gmon_start__@plt>
 80484ea:	83 c4 08             	add    $0x8,%esp
 80484ed:	5b                   	pop    %ebx
 80484ee:	c3                   	ret    

Disassembly of section .plt:

080484f0 <.plt>:
 80484f0:	ff 35 04 a0 04 08    	pushl  0x804a004
 80484f6:	ff 25 08 a0 04 08    	jmp    *0x804a008
 80484fc:	00 00                	add    %al,(%eax)
	...

08048500 <printf@plt>:
 8048500:	ff 25 0c a0 04 08    	jmp    *0x804a00c
 8048506:	68 00 00 00 00       	push   $0x0
 804850b:	e9 e0 ff ff ff       	jmp    80484f0 <.plt>

08048510 <__stack_chk_fail@plt>:
 8048510:	ff 25 10 a0 04 08    	jmp    *0x804a010
 8048516:	68 08 00 00 00       	push   $0x8
 804851b:	e9 d0 ff ff ff       	jmp    80484f0 <.plt>

08048520 <puts@plt>:
 8048520:	ff 25 14 a0 04 08    	jmp    *0x804a014
 8048526:	68 10 00 00 00       	push   $0x10
 804852b:	e9 c0 ff ff ff       	jmp    80484f0 <.plt>

08048530 <__libc_start_main@plt>:
 8048530:	ff 25 18 a0 04 08    	jmp    *0x804a018
 8048536:	68 18 00 00 00       	push   $0x18
 804853b:	e9 b0 ff ff ff       	jmp    80484f0 <.plt>

08048540 <memset@plt>:
 8048540:	ff 25 1c a0 04 08    	jmp    *0x804a01c
 8048546:	68 20 00 00 00       	push   $0x20
 804854b:	e9 a0 ff ff ff       	jmp    80484f0 <.plt>

08048550 <validate@plt>:
 8048550:	ff 25 20 a0 04 08    	jmp    *0x804a020
 8048556:	68 28 00 00 00       	push   $0x28
 804855b:	e9 90 ff ff ff       	jmp    80484f0 <.plt>

08048560 <__isoc99_scanf@plt>:
 8048560:	ff 25 24 a0 04 08    	jmp    *0x804a024
 8048566:	68 30 00 00 00       	push   $0x30
 804856b:	e9 80 ff ff ff       	jmp    80484f0 <.plt>

Disassembly of section .plt.got:

08048570 <__gmon_start__@plt>:
 8048570:	ff 25 fc 9f 04 08    	jmp    *0x8049ffc
 8048576:	66 90                	xchg   %ax,%ax

Disassembly of section .text:

08048580 <_start>:
 8048580:	31 ed                	xor    %ebp,%ebp
 8048582:	5e                   	pop    %esi
 8048583:	89 e1                	mov    %esp,%ecx
 8048585:	83 e4 f0             	and    $0xfffffff0,%esp
 8048588:	50                   	push   %eax
 8048589:	54                   	push   %esp
 804858a:	52                   	push   %edx
 804858b:	68 90 87 04 08       	push   $0x8048790
 8048590:	68 30 87 04 08       	push   $0x8048730
 8048595:	51                   	push   %ecx
 8048596:	56                   	push   %esi
 8048597:	68 7b 86 04 08       	push   $0x804867b
 804859c:	e8 8f ff ff ff       	call   8048530 <__libc_start_main@plt>
 80485a1:	f4                   	hlt    
 80485a2:	66 90                	xchg   %ax,%ax
 80485a4:	66 90                	xchg   %ax,%ax
 80485a6:	66 90                	xchg   %ax,%ax
 80485a8:	66 90                	xchg   %ax,%ax
 80485aa:	66 90                	xchg   %ax,%ax
 80485ac:	66 90                	xchg   %ax,%ax
 80485ae:	66 90                	xchg   %ax,%ax

080485b0 <__x86.get_pc_thunk.bx>:
 80485b0:	8b 1c 24             	mov    (%esp),%ebx
 80485b3:	c3                   	ret    
 80485b4:	66 90                	xchg   %ax,%ax
 80485b6:	66 90                	xchg   %ax,%ax
 80485b8:	66 90                	xchg   %ax,%ax
 80485ba:	66 90                	xchg   %ax,%ax
 80485bc:	66 90                	xchg   %ax,%ax
 80485be:	66 90                	xchg   %ax,%ax

080485c0 <deregister_tm_clones>:
 80485c0:	b8 33 a0 04 08       	mov    $0x804a033,%eax
 80485c5:	2d 30 a0 04 08       	sub    $0x804a030,%eax
 80485ca:	83 f8 06             	cmp    $0x6,%eax
 80485cd:	76 1a                	jbe    80485e9 <deregister_tm_clones+0x29>
 80485cf:	b8 00 00 00 00       	mov    $0x0,%eax
 80485d4:	85 c0                	test   %eax,%eax
 80485d6:	74 11                	je     80485e9 <deregister_tm_clones+0x29>
 80485d8:	55                   	push   %ebp
 80485d9:	89 e5                	mov    %esp,%ebp
 80485db:	83 ec 14             	sub    $0x14,%esp
 80485de:	68 30 a0 04 08       	push   $0x804a030
 80485e3:	ff d0                	call   *%eax
 80485e5:	83 c4 10             	add    $0x10,%esp
 80485e8:	c9                   	leave  
 80485e9:	f3 c3                	repz ret 
 80485eb:	90                   	nop
 80485ec:	8d 74 26 00          	lea    0x0(%esi,%eiz,1),%esi

080485f0 <register_tm_clones>:
 80485f0:	b8 30 a0 04 08       	mov    $0x804a030,%eax
 80485f5:	2d 30 a0 04 08       	sub    $0x804a030,%eax
 80485fa:	c1 f8 02             	sar    $0x2,%eax
 80485fd:	89 c2                	mov    %eax,%edx
 80485ff:	c1 ea 1f             	shr    $0x1f,%edx
 8048602:	01 d0                	add    %edx,%eax
 8048604:	d1 f8                	sar    %eax
 8048606:	74 1b                	je     8048623 <register_tm_clones+0x33>
 8048608:	ba 00 00 00 00       	mov    $0x0,%edx
 804860d:	85 d2                	test   %edx,%edx
 804860f:	74 12                	je     8048623 <register_tm_clones+0x33>
 8048611:	55                   	push   %ebp
 8048612:	89 e5                	mov    %esp,%ebp
 8048614:	83 ec 10             	sub    $0x10,%esp
 8048617:	50                   	push   %eax
 8048618:	68 30 a0 04 08       	push   $0x804a030
 804861d:	ff d2                	call   *%edx
 804861f:	83 c4 10             	add    $0x10,%esp
 8048622:	c9                   	leave  
 8048623:	f3 c3                	repz ret 
 8048625:	8d 74 26 00          	lea    0x0(%esi,%eiz,1),%esi
 8048629:	8d bc 27 00 00 00 00 	lea    0x0(%edi,%eiz,1),%edi

08048630 <__do_global_dtors_aux>:
 8048630:	80 3d 30 a0 04 08 00 	cmpb   $0x0,0x804a030
 8048637:	75 13                	jne    804864c <__do_global_dtors_aux+0x1c>
 8048639:	55                   	push   %ebp
 804863a:	89 e5                	mov    %esp,%ebp
 804863c:	83 ec 08             	sub    $0x8,%esp
 804863f:	e8 7c ff ff ff       	call   80485c0 <deregister_tm_clones>
 8048644:	c6 05 30 a0 04 08 01 	movb   $0x1,0x804a030
 804864b:	c9                   	leave  
 804864c:	f3 c3                	repz ret 
 804864e:	66 90                	xchg   %ax,%ax

08048650 <frame_dummy>:
 8048650:	b8 08 9f 04 08       	mov    $0x8049f08,%eax
 8048655:	8b 10                	mov    (%eax),%edx
 8048657:	85 d2                	test   %edx,%edx
 8048659:	75 05                	jne    8048660 <frame_dummy+0x10>
 804865b:	eb 93                	jmp    80485f0 <register_tm_clones>
 804865d:	8d 76 00             	lea    0x0(%esi),%esi
 8048660:	ba 00 00 00 00       	mov    $0x0,%edx
 8048665:	85 d2                	test   %edx,%edx
 8048667:	74 f2                	je     804865b <frame_dummy+0xb>
 8048669:	55                   	push   %ebp
 804866a:	89 e5                	mov    %esp,%ebp
 804866c:	83 ec 14             	sub    $0x14,%esp
 804866f:	50                   	push   %eax
 8048670:	ff d2                	call   *%edx
 8048672:	83 c4 10             	add    $0x10,%esp
 8048675:	c9                   	leave  
 8048676:	e9 75 ff ff ff       	jmp    80485f0 <register_tm_clones>

0804867b <main>:
 804867b:	8d 4c 24 04          	lea    0x4(%esp),%ecx
 804867f:	83 e4 f0             	and    $0xfffffff0,%esp
 8048682:	ff 71 fc             	pushl  -0x4(%ecx)
 8048685:	55                   	push   %ebp
 8048686:	89 e5                	mov    %esp,%ebp
 8048688:	51                   	push   %ecx
 8048689:	83 ec 34             	sub    $0x34,%esp
 804868c:	89 c8                	mov    %ecx,%eax
 804868e:	8b 40 04             	mov    0x4(%eax),%eax
 8048691:	89 45 d4             	mov    %eax,-0x2c(%ebp)
 8048694:	65 a1 14 00 00 00    	mov    %gs:0x14,%eax
 804869a:	89 45 f4             	mov    %eax,-0xc(%ebp)
 804869d:	31 c0                	xor    %eax,%eax
 804869f:	83 ec 04             	sub    $0x4,%esp
 80486a2:	6a 10                	push   $0x10
 80486a4:	6a 00                	push   $0x0
 80486a6:	8d 45 e4             	lea    -0x1c(%ebp),%eax
 80486a9:	50                   	push   %eax
 80486aa:	e8 91 fe ff ff       	call   8048540 <memset@plt>
 80486af:	83 c4 10             	add    $0x10,%esp
 80486b2:	83 ec 0c             	sub    $0xc,%esp
 80486b5:	68 b0 87 04 08       	push   $0x80487b0
 80486ba:	e8 41 fe ff ff       	call   8048500 <printf@plt>
 80486bf:	83 c4 10             	add    $0x10,%esp
 80486c2:	83 ec 08             	sub    $0x8,%esp
 80486c5:	8d 45 e4             	lea    -0x1c(%ebp),%eax
 80486c8:	50                   	push   %eax
 80486c9:	68 c5 87 04 08       	push   $0x80487c5
 80486ce:	e8 8d fe ff ff       	call   8048560 <__isoc99_scanf@plt>
 80486d3:	83 c4 10             	add    $0x10,%esp
 80486d6:	83 ec 08             	sub    $0x8,%esp
 80486d9:	6a 08                	push   $0x8
 80486db:	8d 45 e4             	lea    -0x1c(%ebp),%eax
 80486de:	50                   	push   %eax
 80486df:	e8 6c fe ff ff       	call   8048550 <validate@plt>
 80486e4:	83 c4 10             	add    $0x10,%esp
 80486e7:	85 c0                	test   %eax,%eax
 80486e9:	74 12                	je     80486fd <main+0x82>
 80486eb:	83 ec 0c             	sub    $0xc,%esp
 80486ee:	68 c9 87 04 08       	push   $0x80487c9
 80486f3:	e8 28 fe ff ff       	call   8048520 <puts@plt>
 80486f8:	83 c4 10             	add    $0x10,%esp
 80486fb:	eb 10                	jmp    804870d <main+0x92>
 80486fd:	83 ec 0c             	sub    $0xc,%esp
 8048700:	68 d3 87 04 08       	push   $0x80487d3
 8048705:	e8 16 fe ff ff       	call   8048520 <puts@plt>
 804870a:	83 c4 10             	add    $0x10,%esp
 804870d:	b8 00 00 00 00       	mov    $0x0,%eax
 8048712:	8b 55 f4             	mov    -0xc(%ebp),%edx
 8048715:	65 33 15 14 00 00 00 	xor    %gs:0x14,%edx
 804871c:	74 05                	je     8048723 <main+0xa8>
 804871e:	e8 ed fd ff ff       	call   8048510 <__stack_chk_fail@plt>
 8048723:	8b 4d fc             	mov    -0x4(%ebp),%ecx
 8048726:	c9                   	leave  
 8048727:	8d 61 fc             	lea    -0x4(%ecx),%esp
 804872a:	c3                   	ret    
 804872b:	66 90                	xchg   %ax,%ax
 804872d:	66 90                	xchg   %ax,%ax
 804872f:	90                   	nop

08048730 <__libc_csu_init>:
 8048730:	55                   	push   %ebp
 8048731:	57                   	push   %edi
 8048732:	56                   	push   %esi
 8048733:	53                   	push   %ebx
 8048734:	e8 77 fe ff ff       	call   80485b0 <__x86.get_pc_thunk.bx>
 8048739:	81 c3 c7 18 00 00    	add    $0x18c7,%ebx
 804873f:	83 ec 0c             	sub    $0xc,%esp
 8048742:	8b 6c 24 20          	mov    0x20(%esp),%ebp
 8048746:	8d b3 04 ff ff ff    	lea    -0xfc(%ebx),%esi
 804874c:	e8 7b fd ff ff       	call   80484cc <_init>
 8048751:	8d 83 00 ff ff ff    	lea    -0x100(%ebx),%eax
 8048757:	29 c6                	sub    %eax,%esi
 8048759:	c1 fe 02             	sar    $0x2,%esi
 804875c:	85 f6                	test   %esi,%esi
 804875e:	74 25                	je     8048785 <__libc_csu_init+0x55>
 8048760:	31 ff                	xor    %edi,%edi
 8048762:	8d b6 00 00 00 00    	lea    0x0(%esi),%esi
 8048768:	83 ec 04             	sub    $0x4,%esp
 804876b:	ff 74 24 2c          	pushl  0x2c(%esp)
 804876f:	ff 74 24 2c          	pushl  0x2c(%esp)
 8048773:	55                   	push   %ebp
 8048774:	ff 94 bb 00 ff ff ff 	call   *-0x100(%ebx,%edi,4)
 804877b:	83 c7 01             	add    $0x1,%edi
 804877e:	83 c4 10             	add    $0x10,%esp
 8048781:	39 f7                	cmp    %esi,%edi
 8048783:	75 e3                	jne    8048768 <__libc_csu_init+0x38>
 8048785:	83 c4 0c             	add    $0xc,%esp
 8048788:	5b                   	pop    %ebx
 8048789:	5e                   	pop    %esi
 804878a:	5f                   	pop    %edi
 804878b:	5d                   	pop    %ebp
 804878c:	c3                   	ret    
 804878d:	8d 76 00             	lea    0x0(%esi),%esi

08048790 <__libc_csu_fini>:
 8048790:	f3 c3                	repz ret 

Disassembly of section .fini:

08048794 <_fini>:
 8048794:	53                   	push   %ebx
 8048795:	83 ec 08             	sub    $0x8,%esp
 8048798:	e8 13 fe ff ff       	call   80485b0 <__x86.get_pc_thunk.bx>
 804879d:	81 c3 63 18 00 00    	add    $0x1863,%ebx
 80487a3:	83 c4 08             	add    $0x8,%esp
 80487a6:	5b                   	pop    %ebx
 80487a7:	c3                   	ret    
