
lib14_angr_shared_library.so:     file format elf32-i386


Disassembly of section .init:

00000460 <_init>:
 460:	53                   	push   %ebx
 461:	83 ec 08             	sub    $0x8,%esp
 464:	e8 97 00 00 00       	call   500 <__x86.get_pc_thunk.bx>
 469:	81 c3 97 1b 00 00    	add    $0x1b97,%ebx
 46f:	8b 83 f0 ff ff ff    	mov    -0x10(%ebx),%eax
 475:	85 c0                	test   %eax,%eax
 477:	74 05                	je     47e <_init+0x1e>
 479:	e8 7a 00 00 00       	call   4f8 <__gmon_start__@plt>
 47e:	83 c4 08             	add    $0x8,%esp
 481:	5b                   	pop    %ebx
 482:	c3                   	ret    

Disassembly of section .plt:

00000490 <.plt>:
 490:	ff b3 04 00 00 00    	pushl  0x4(%ebx)
 496:	ff a3 08 00 00 00    	jmp    *0x8(%ebx)
 49c:	00 00                	add    %al,(%eax)
	...

000004a0 <strcmp@plt>:
 4a0:	ff a3 0c 00 00 00    	jmp    *0xc(%ebx)
 4a6:	68 00 00 00 00       	push   $0x0
 4ab:	e9 e0 ff ff ff       	jmp    490 <.plt>

000004b0 <printf@plt>:
 4b0:	ff a3 10 00 00 00    	jmp    *0x10(%ebx)
 4b6:	68 08 00 00 00       	push   $0x8
 4bb:	e9 d0 ff ff ff       	jmp    490 <.plt>

000004c0 <complex_function@plt>:
 4c0:	ff a3 14 00 00 00    	jmp    *0x14(%ebx)
 4c6:	68 10 00 00 00       	push   $0x10
 4cb:	e9 c0 ff ff ff       	jmp    490 <.plt>

000004d0 <puts@plt>:
 4d0:	ff a3 18 00 00 00    	jmp    *0x18(%ebx)
 4d6:	68 18 00 00 00       	push   $0x18
 4db:	e9 b0 ff ff ff       	jmp    490 <.plt>

000004e0 <exit@plt>:
 4e0:	ff a3 1c 00 00 00    	jmp    *0x1c(%ebx)
 4e6:	68 20 00 00 00       	push   $0x20
 4eb:	e9 a0 ff ff ff       	jmp    490 <.plt>

Disassembly of section .plt.got:

000004f0 <__cxa_finalize@plt>:
 4f0:	ff a3 ec ff ff ff    	jmp    *-0x14(%ebx)
 4f6:	66 90                	xchg   %ax,%ax

000004f8 <__gmon_start__@plt>:
 4f8:	ff a3 f0 ff ff ff    	jmp    *-0x10(%ebx)
 4fe:	66 90                	xchg   %ax,%ax

Disassembly of section .text:

00000500 <__x86.get_pc_thunk.bx>:
 500:	8b 1c 24             	mov    (%esp),%ebx
 503:	c3                   	ret    
 504:	66 90                	xchg   %ax,%ax
 506:	66 90                	xchg   %ax,%ax
 508:	66 90                	xchg   %ax,%ax
 50a:	66 90                	xchg   %ax,%ax
 50c:	66 90                	xchg   %ax,%ax
 50e:	66 90                	xchg   %ax,%ax

00000510 <deregister_tm_clones>:
 510:	e8 17 01 00 00       	call   62c <__x86.get_pc_thunk.dx>
 515:	81 c2 eb 1a 00 00    	add    $0x1aeb,%edx
 51b:	8d 8a 34 00 00 00    	lea    0x34(%edx),%ecx
 521:	8d 82 37 00 00 00    	lea    0x37(%edx),%eax
 527:	29 c8                	sub    %ecx,%eax
 529:	83 f8 06             	cmp    $0x6,%eax
 52c:	76 17                	jbe    545 <deregister_tm_clones+0x35>
 52e:	8b 82 e8 ff ff ff    	mov    -0x18(%edx),%eax
 534:	85 c0                	test   %eax,%eax
 536:	74 0d                	je     545 <deregister_tm_clones+0x35>
 538:	55                   	push   %ebp
 539:	89 e5                	mov    %esp,%ebp
 53b:	83 ec 14             	sub    $0x14,%esp
 53e:	51                   	push   %ecx
 53f:	ff d0                	call   *%eax
 541:	83 c4 10             	add    $0x10,%esp
 544:	c9                   	leave  
 545:	f3 c3                	repz ret 
 547:	89 f6                	mov    %esi,%esi
 549:	8d bc 27 00 00 00 00 	lea    0x0(%edi,%eiz,1),%edi

00000550 <register_tm_clones>:
 550:	e8 d7 00 00 00       	call   62c <__x86.get_pc_thunk.dx>
 555:	81 c2 ab 1a 00 00    	add    $0x1aab,%edx
 55b:	55                   	push   %ebp
 55c:	8d 8a 34 00 00 00    	lea    0x34(%edx),%ecx
 562:	8d 82 34 00 00 00    	lea    0x34(%edx),%eax
 568:	89 e5                	mov    %esp,%ebp
 56a:	53                   	push   %ebx
 56b:	29 c8                	sub    %ecx,%eax
 56d:	c1 f8 02             	sar    $0x2,%eax
 570:	83 ec 04             	sub    $0x4,%esp
 573:	89 c3                	mov    %eax,%ebx
 575:	c1 eb 1f             	shr    $0x1f,%ebx
 578:	01 d8                	add    %ebx,%eax
 57a:	d1 f8                	sar    %eax
 57c:	74 14                	je     592 <register_tm_clones+0x42>
 57e:	8b 92 f8 ff ff ff    	mov    -0x8(%edx),%edx
 584:	85 d2                	test   %edx,%edx
 586:	74 0a                	je     592 <register_tm_clones+0x42>
 588:	83 ec 08             	sub    $0x8,%esp
 58b:	50                   	push   %eax
 58c:	51                   	push   %ecx
 58d:	ff d2                	call   *%edx
 58f:	83 c4 10             	add    $0x10,%esp
 592:	8b 5d fc             	mov    -0x4(%ebp),%ebx
 595:	c9                   	leave  
 596:	c3                   	ret    
 597:	89 f6                	mov    %esi,%esi
 599:	8d bc 27 00 00 00 00 	lea    0x0(%edi,%eiz,1),%edi

000005a0 <__do_global_dtors_aux>:
 5a0:	55                   	push   %ebp
 5a1:	89 e5                	mov    %esp,%ebp
 5a3:	53                   	push   %ebx
 5a4:	e8 57 ff ff ff       	call   500 <__x86.get_pc_thunk.bx>
 5a9:	81 c3 57 1a 00 00    	add    $0x1a57,%ebx
 5af:	83 ec 04             	sub    $0x4,%esp
 5b2:	80 bb 31 00 00 00 00 	cmpb   $0x0,0x31(%ebx)
 5b9:	75 27                	jne    5e2 <__do_global_dtors_aux+0x42>
 5bb:	8b 83 ec ff ff ff    	mov    -0x14(%ebx),%eax
 5c1:	85 c0                	test   %eax,%eax
 5c3:	74 11                	je     5d6 <__do_global_dtors_aux+0x36>
 5c5:	83 ec 0c             	sub    $0xc,%esp
 5c8:	ff b3 20 00 00 00    	pushl  0x20(%ebx)
 5ce:	e8 1d ff ff ff       	call   4f0 <__cxa_finalize@plt>
 5d3:	83 c4 10             	add    $0x10,%esp
 5d6:	e8 35 ff ff ff       	call   510 <deregister_tm_clones>
 5db:	c6 83 31 00 00 00 01 	movb   $0x1,0x31(%ebx)
 5e2:	8b 5d fc             	mov    -0x4(%ebp),%ebx
 5e5:	c9                   	leave  
 5e6:	c3                   	ret    
 5e7:	89 f6                	mov    %esi,%esi
 5e9:	8d bc 27 00 00 00 00 	lea    0x0(%edi,%eiz,1),%edi

000005f0 <frame_dummy>:
 5f0:	e8 37 00 00 00       	call   62c <__x86.get_pc_thunk.dx>
 5f5:	81 c2 0b 1a 00 00    	add    $0x1a0b,%edx
 5fb:	8d 82 04 ff ff ff    	lea    -0xfc(%edx),%eax
 601:	8b 08                	mov    (%eax),%ecx
 603:	85 c9                	test   %ecx,%ecx
 605:	75 09                	jne    610 <frame_dummy+0x20>
 607:	e9 44 ff ff ff       	jmp    550 <register_tm_clones>
 60c:	8d 74 26 00          	lea    0x0(%esi,%eiz,1),%esi
 610:	8b 92 f4 ff ff ff    	mov    -0xc(%edx),%edx
 616:	85 d2                	test   %edx,%edx
 618:	74 ed                	je     607 <frame_dummy+0x17>
 61a:	55                   	push   %ebp
 61b:	89 e5                	mov    %esp,%ebp
 61d:	83 ec 14             	sub    $0x14,%esp
 620:	50                   	push   %eax
 621:	ff d2                	call   *%edx
 623:	83 c4 10             	add    $0x10,%esp
 626:	c9                   	leave  
 627:	e9 24 ff ff ff       	jmp    550 <register_tm_clones>

0000062c <__x86.get_pc_thunk.dx>:
 62c:	8b 14 24             	mov    (%esp),%edx
 62f:	c3                   	ret    

00000630 <print_msg>:
 630:	55                   	push   %ebp
 631:	89 e5                	mov    %esp,%ebp
 633:	53                   	push   %ebx
 634:	83 ec 04             	sub    $0x4,%esp
 637:	e8 48 01 00 00       	call   784 <__x86.get_pc_thunk.ax>
 63c:	05 c4 19 00 00       	add    $0x19c4,%eax
 641:	83 ec 08             	sub    $0x8,%esp
 644:	8b 90 fc ff ff ff    	mov    -0x4(%eax),%edx
 64a:	52                   	push   %edx
 64b:	8d 90 9c e7 ff ff    	lea    -0x1864(%eax),%edx
 651:	52                   	push   %edx
 652:	89 c3                	mov    %eax,%ebx
 654:	e8 57 fe ff ff       	call   4b0 <printf@plt>
 659:	83 c4 10             	add    $0x10,%esp
 65c:	90                   	nop
 65d:	8b 5d fc             	mov    -0x4(%ebp),%ebx
 660:	c9                   	leave  
 661:	c3                   	ret    

00000662 <complex_function>:
 662:	55                   	push   %ebp
 663:	89 e5                	mov    %esp,%ebp
 665:	53                   	push   %ebx
 666:	83 ec 04             	sub    $0x4,%esp
 669:	e8 92 fe ff ff       	call   500 <__x86.get_pc_thunk.bx>
 66e:	81 c3 92 19 00 00    	add    $0x1992,%ebx
 674:	83 7d 08 40          	cmpl   $0x40,0x8(%ebp)
 678:	7e 06                	jle    680 <complex_function+0x1e>
 67a:	83 7d 08 5a          	cmpl   $0x5a,0x8(%ebp)
 67e:	7e 1c                	jle    69c <complex_function+0x3a>
 680:	83 ec 0c             	sub    $0xc,%esp
 683:	8d 83 9f e7 ff ff    	lea    -0x1861(%ebx),%eax
 689:	50                   	push   %eax
 68a:	e8 41 fe ff ff       	call   4d0 <puts@plt>
 68f:	83 c4 10             	add    $0x10,%esp
 692:	83 ec 0c             	sub    $0xc,%esp
 695:	6a 01                	push   $0x1
 697:	e8 44 fe ff ff       	call   4e0 <exit@plt>
 69c:	8b 45 08             	mov    0x8(%ebp),%eax
 69f:	8d 48 bf             	lea    -0x41(%eax),%ecx
 6a2:	8b 55 0c             	mov    0xc(%ebp),%edx
 6a5:	89 d0                	mov    %edx,%eax
 6a7:	c1 e0 02             	shl    $0x2,%eax
 6aa:	01 d0                	add    %edx,%eax
 6ac:	c1 e0 03             	shl    $0x3,%eax
 6af:	01 d0                	add    %edx,%eax
 6b1:	01 c1                	add    %eax,%ecx
 6b3:	ba 4f ec c4 4e       	mov    $0x4ec4ec4f,%edx
 6b8:	89 c8                	mov    %ecx,%eax
 6ba:	f7 ea                	imul   %edx
 6bc:	c1 fa 03             	sar    $0x3,%edx
 6bf:	89 c8                	mov    %ecx,%eax
 6c1:	c1 f8 1f             	sar    $0x1f,%eax
 6c4:	29 c2                	sub    %eax,%edx
 6c6:	89 d0                	mov    %edx,%eax
 6c8:	6b c0 1a             	imul   $0x1a,%eax,%eax
 6cb:	29 c1                	sub    %eax,%ecx
 6cd:	89 c8                	mov    %ecx,%eax
 6cf:	83 c0 41             	add    $0x41,%eax
 6d2:	8b 5d fc             	mov    -0x4(%ebp),%ebx
 6d5:	c9                   	leave  
 6d6:	c3                   	ret    

000006d7 <validate>:
 6d7:	55                   	push   %ebp
 6d8:	89 e5                	mov    %esp,%ebp
 6da:	56                   	push   %esi
 6db:	53                   	push   %ebx
 6dc:	83 ec 20             	sub    $0x20,%esp
 6df:	e8 1c fe ff ff       	call   500 <__x86.get_pc_thunk.bx>
 6e4:	81 c3 1c 19 00 00    	add    $0x191c,%ebx
 6ea:	83 7d 0c 07          	cmpl   $0x7,0xc(%ebp)
 6ee:	7f 0a                	jg     6fa <validate+0x23>
 6f0:	b8 00 00 00 00       	mov    $0x0,%eax
 6f5:	e9 83 00 00 00       	jmp    77d <validate+0xa6>
 6fa:	c7 45 f4 00 00 00 00 	movl   $0x0,-0xc(%ebp)
 701:	eb 0f                	jmp    712 <validate+0x3b>
 703:	8d 55 dc             	lea    -0x24(%ebp),%edx
 706:	8b 45 f4             	mov    -0xc(%ebp),%eax
 709:	01 d0                	add    %edx,%eax
 70b:	c6 00 00             	movb   $0x0,(%eax)
 70e:	83 45 f4 01          	addl   $0x1,-0xc(%ebp)
 712:	83 7d f4 13          	cmpl   $0x13,-0xc(%ebp)
 716:	7e eb                	jle    703 <validate+0x2c>
 718:	8d 45 dc             	lea    -0x24(%ebp),%eax
 71b:	c7 00 50 56 42 4c    	movl   $0x4c425650,(%eax)
 721:	c7 40 04 56 54 46 54 	movl   $0x54465456,0x4(%eax)
 728:	c7 45 f0 00 00 00 00 	movl   $0x0,-0x10(%ebp)
 72f:	eb 2c                	jmp    75d <validate+0x86>
 731:	8b 55 f0             	mov    -0x10(%ebp),%edx
 734:	8b 45 08             	mov    0x8(%ebp),%eax
 737:	8d 34 02             	lea    (%edx,%eax,1),%esi
 73a:	8b 55 f0             	mov    -0x10(%ebp),%edx
 73d:	8b 45 08             	mov    0x8(%ebp),%eax
 740:	01 d0                	add    %edx,%eax
 742:	0f b6 00             	movzbl (%eax),%eax
 745:	0f be c0             	movsbl %al,%eax
 748:	83 ec 08             	sub    $0x8,%esp
 74b:	ff 75 f0             	pushl  -0x10(%ebp)
 74e:	50                   	push   %eax
 74f:	e8 6c fd ff ff       	call   4c0 <complex_function@plt>
 754:	83 c4 10             	add    $0x10,%esp
 757:	88 06                	mov    %al,(%esi)
 759:	83 45 f0 01          	addl   $0x1,-0x10(%ebp)
 75d:	83 7d f0 07          	cmpl   $0x7,-0x10(%ebp)
 761:	7e ce                	jle    731 <validate+0x5a>
 763:	83 ec 08             	sub    $0x8,%esp
 766:	8d 45 dc             	lea    -0x24(%ebp),%eax
 769:	50                   	push   %eax
 76a:	ff 75 08             	pushl  0x8(%ebp)
 76d:	e8 2e fd ff ff       	call   4a0 <strcmp@plt>
 772:	83 c4 10             	add    $0x10,%esp
 775:	85 c0                	test   %eax,%eax
 777:	0f 94 c0             	sete   %al
 77a:	0f b6 c0             	movzbl %al,%eax
 77d:	8d 65 f8             	lea    -0x8(%ebp),%esp
 780:	5b                   	pop    %ebx
 781:	5e                   	pop    %esi
 782:	5d                   	pop    %ebp
 783:	c3                   	ret    

00000784 <__x86.get_pc_thunk.ax>:
 784:	8b 04 24             	mov    (%esp),%eax
 787:	c3                   	ret    

Disassembly of section .fini:

00000788 <_fini>:
 788:	53                   	push   %ebx
 789:	83 ec 08             	sub    $0x8,%esp
 78c:	e8 6f fd ff ff       	call   500 <__x86.get_pc_thunk.bx>
 791:	81 c3 6f 18 00 00    	add    $0x186f,%ebx
 797:	83 c4 08             	add    $0x8,%esp
 79a:	5b                   	pop    %ebx
 79b:	c3                   	ret    
